(lp0
S'__do_global_dtors_aux'
p1
aS'frame_dummy'
p2
aS'main'
p3
aS'null_action'
p4
aS'overflow_handler'
p5
aS'segv_handler'
p6
aS'sigsegv_handler'
p7
aS'simple_is_near_this'
p8
aS'mincore_get_vma'
p9
aS'mincore_is_near_this'
p10
aS'rpl_free'
p11
aS'__libc_csu_init'
p12
aS'__libc_csu_fini'
p13
aS'raise'
p14
aS'free'
p15
aS'strtoimax'
p16
aS'abort'
p17
aS'__errno_location'
p18
aS'strncmp'
p19
aS'_exit'
p20
aS'iconv'
p21
aS'puts'
p22
aS'sigaction'
p23
aS'iswcntrl'
p24
aS'reallocarray'
p25
aS'fcntl'
p26
aS'write'
p27
aS'textdomain'
p28
aS'fclose'
p29
aS'bindtextdomain'
p30
aS'dcgettext'
p31
aS'__ctype_get_mb_cur_max'
p32
aS'strlen'
p33
aS'mmap'
p34
aS'getopt_long'
p35
aS'mbrtowc'
p36
aS'strchr'
p37
aS'printf'
p38
aS'strrchr'
p39
aS'lseek'
p40
aS'__assert_fail'
p41
aS'memset'
p42
aS'strnlen'
p43
aS'close'
p44
aS'memchr'
p45
aS'read'
p46
aS'__libc_start_main'
p47
aS'fputs_unlocked'
p48
aS'rawmemchr'
p49
aS'ferror_unlocked'
p50
aS'calloc'
p51
aS'strcmp'
p52
aS'signal'
p53
aS'fprintf'
p54
aS'sigemptyset'
p55
aS'memcpy'
p56
aS'__xstat'
p57
aS'mincore'
p58
aS'wcwidth'
p59
aS'iswalnum'
p60
aS'malloc'
p61
aS'nl_langinfo'
p62
aS'__fxstat'
p63
aS'bcmp'
p64
aS'realloc'
p65
aS'munmap'
p66
aS'setlocale'
p67
aS'iconv_close'
p68
aS'iswspace'
p69
aS'memmove'
p70
aS'error'
p71
aS'open'
p72
aS'perror'
p73
aS'getpagesize'
p74
aS'sprintf'
p75
aS'exit'
p76
aS'fwrite'
p77
aS'strdup'
p78
aS'mbsinit'
p79
aS'sigaltstack'
p80
aS'sigaddset'
p81
aS'__ctype_b_loc'
p82
aS'iconv_open'
p83
aS'__gmon_start__'
p84
a.