(dp0
S'xnmalloc'
p1
(dp2
I0
(S'0x404a30'
p3
S'0x404a3f'
p4
tp5
ssS'.sigaltstack'
p6
(dp7
I0
(S'0x401990'
p8
S'0x401995'
p9
tp10
ssS'fclose'
p11
(dp12
I0
(S'0x61a62c'
p13
S'0x61a62f'
p14
tp15
ssS'xicalloc'
p16
(dp17
I0
(S'0x404ca0'
p18
S'0x404caf'
p19
tp20
ssS'.sigaddset'
p21
(dp22
I0
(S'0x4019a0'
p23
S'0x4019a5'
p24
tp25
ssS'fwrite'
p26
(dp27
I0
(S'0x61a6ec'
p28
S'0x61a6ef'
p29
tp30
ssS'.exit'
p31
(dp32
I0
(S'0x401950'
p33
S'0x401955'
p34
tp35
ssS'xirealloc'
p36
(dp37
I0
(S'0x404a10'
p38
S'0x404a1f'
p39
tp40
ssS'rof_peekchar'
p41
(dp42
I0
(S'0x403fb0'
p43
S'0x403fb8'
p44
tp45
sI1
(S'0x403fb9'
p46
S'0x403fc5'
p47
tp48
sI2
(S'0x403fc6'
p49
S'0x403fce'
p50
tp51
ssS'perror@@GLIBC_2.2.5'
p52
(dp53
I0
(S'0x61a5c4'
p54
S'0x61a5c7'
p55
tp56
ssS'callback'
p57
(dp58
I0
(S'0x403f50'
p59
S'0x403f57'
p60
tp61
sI1
(S'0x403f58'
p62
S'0x403f60'
p63
tp64
sI2
(S'0x403f61'
p65
S'0x403f80'
p66
tp67
sI3
(S'0x403f81'
p68
S'0x403f87'
p69
tp70
ssS'nl_langinfo@@GLIBC_2.2.5'
p71
(dp72
I0
(S'0x61a598'
p73
S'0x61a59b'
p74
tp75
ssS'ximalloc'
p76
(dp77
I0
(S'0x4049c0'
p78
S'0x4049cf'
p79
tp80
ssS'xalloc_die'
p81
(dp82
I0
(S'0x404d70'
p83
S'0x404d9f'
p84
tp85
ssS'version_etc_ar'
p86
(dp87
I0
(S'0x4047a0'
p88
S'0x4047af'
p89
tp90
sI1
(S'0x4047b0'
p91
S'0x4047bb'
p92
tp93
sI2
(S'0x4047bc'
p94
S'0x4047c2'
p95
tp96
ssS'stackoverflow_deinstall_handler'
p97
(dp98
I0
(S'0x403890'
p99
S'0x4038a8'
p100
tp101
sI1
(S'0x4038a9'
p102
S'0x4038af'
p103
tp104
sI2
(S'0x4038b0'
p105
S'0x4038bb'
p106
tp107
sI3
(S'0x4038bc'
p108
S'0x4038d1'
p109
tp110
sI4
(S'0x4038d2'
p111
S'0x4038d6'
p112
tp113
sI5
(S'0x4038d7'
p114
S'0x4038e5'
p115
tp116
ssS'c_ispunct'
p117
(dp118
I0
(S'0x406a30'
p119
S'0x406a37'
p120
tp121
sI1
(S'0x406a38'
p122
S'0x406a40'
p123
tp124
sI2
(S'0x406a41'
p125
S'0x406a41'
p126
tp127
sI3
(S'0x406a42'
p128
S'0x406a44'
p129
tp130
ssS'.realloc'
p131
(dp132
I0
(S'0x4018a0'
p133
S'0x4018a5'
p134
tp135
ssS'.write'
p136
(dp137
I0
(S'0x401650'
p138
S'0x401655'
p139
tp140
ssS'str_cd_iconv'
p141
(dp142
I0
(S'0x406610'
p143
S'0x406657'
p144
tp145
sI1
(S'0x406658'
p146
S'0x40668d'
p147
tp148
sI2
(S'0x40668e'
p149
S'0x40669f'
p150
tp151
sI3
(S'0x4066a0'
p152
S'0x4066a8'
p153
tp154
sI4
(S'0x4066a9'
p155
S'0x4066ca'
p156
tp157
sI5
(S'0x4066cb'
p158
S'0x4066d9'
p159
tp160
sI6
(S'0x4066da'
p161
S'0x4066de'
p162
tp163
sI7
(S'0x4066df'
p164
S'0x4066ec'
p165
tp166
sI8
(S'0x4066ed'
p167
S'0x406705'
p168
tp169
sI9
(S'0x406706'
p170
S'0x40672c'
p171
tp172
sI10
(S'0x40672d'
p173
S'0x40673a'
p174
tp175
sI11
(S'0x40673b'
p176
S'0x40674c'
p177
tp178
sI12
(S'0x40674d'
p179
S'0x406756'
p180
tp181
sI13
(S'0x406757'
p182
S'0x406760'
p183
tp184
sI14
(S'0x406761'
p185
S'0x40676f'
p186
tp187
sI15
(S'0x406770'
p188
S'0x406778'
p189
tp190
sI16
(S'0x406779'
p191
S'0x406796'
p192
tp193
sI17
(S'0x406797'
p194
S'0x4067a6'
p195
tp196
sI18
(S'0x4067a7'
p197
S'0x4067b7'
p198
tp199
sI19
(S'0x4067b8'
p200
S'0x4067d0'
p201
tp202
sI20
(S'0x4067d1'
p203
S'0x4067f7'
p204
tp205
sI21
(S'0x4067f8'
p206
S'0x4067fd'
p207
tp208
sI22
(S'0x4067fe'
p209
S'0x40680c'
p210
tp211
sI23
(S'0x40680d'
p212
S'0x406819'
p213
tp214
sI24
(S'0x40681a'
p215
S'0x40681f'
p216
tp217
sI25
(S'0x406820'
p218
S'0x406840'
p219
tp220
sI26
(S'0x406841'
p221
S'0x40684a'
p222
tp223
sI27
(S'0x40684b'
p224
S'0x40684e'
p225
tp226
sI28
(S'0x40684f'
p227
S'0x406854'
p228
tp229
sI29
(S'0x406855'
p230
S'0x40685e'
p231
tp232
sI30
(S'0x40685f'
p233
S'0x406865'
p234
tp235
sI31
(S'0x406866'
p236
S'0x406874'
p237
tp238
sI32
(S'0x406875'
p239
S'0x406886'
p240
tp241
ssS'.__fxstat'
p242
(dp243
I0
(S'0x401880'
p244
S'0x401885'
p245
tp246
ssS'__fxstat'
p247
(dp248
I0
(S'0x61a6b4'
p249
S'0x61a6b7'
p250
tp251
ssS'.signal'
p252
(dp253
I0
(S'0x4017e0'
p254
S'0x4017e5'
p255
tp256
ssS'.memcpy'
p257
(dp258
I0
(S'0x401810'
p259
S'0x401815'
p260
tp261
ssS'fstat'
p262
(dp263
I0
(S'0x406fb0'
p264
S'0x406fbe'
p265
tp266
ssS'sprintf'
p267
(dp268
I0
(S'0x61a6e4'
p269
S'0x61a6e7'
p270
tp271
ssS'xmem_cd_iconv'
p272
(dp273
I0
(S'0x404de0'
p274
S'0x404deb'
p275
tp276
sI1
(S'0x404dec'
p277
S'0x404df5'
p278
tp279
sI2
(S'0x404df6'
p280
S'0x404df9'
p281
tp282
sI3
(S'0x404dfa'
p283
S'0x404dfe'
p284
tp285
ssS'.bcmp'
p286
(dp287
I0
(S'0x401890'
p288
S'0x401895'
p289
tp290
ssS'.fwrite'
p291
(dp292
I0
(S'0x401960'
p293
S'0x401965'
p294
tp295
ssS'sigaltstack'
p296
(dp297
I0
(S'0x61a6f8'
p298
S'0x61a6fb'
p299
tp300
ssS'.mmap'
p301
(dp302
I0
(S'0x4016c0'
p303
S'0x4016c5'
p304
tp305
ssS'.getpagesize'
p306
(dp307
I0
(S'0x401930'
p308
S'0x401935'
p309
tp310
ssS'xmemdup'
p311
(dp312
I0
(S'0x404cb0'
p313
S'0x404cdc'
p314
tp315
ssS'bcmp'
p316
(dp317
I0
(S'0x61a6b8'
p318
S'0x61a6bb'
p319
tp320
ssS'mbrtowc@@GLIBC_2.2.5'
p321
(dp322
I0
(S'0x61a530'
p323
S'0x61a533'
p324
tp325
ssS'vma_iterate'
p326
(dp327
I0
(S'0x403a40'
p328
S'0x403a47'
p329
tp330
ssS'sigaltstack@@GLIBC_2.2.5'
p331
(dp332
I0
(S'0x61a5e0'
p333
S'0x61a5e3'
p334
tp335
ssS'fprintf@@GLIBC_2.2.5'
p336
(dp337
I0
(S'0x61a578'
p338
S'0x61a57b'
p339
tp340
ssS'bkm_scale'
p341
(dp342
I0
(S'0x405150'
p343
S'0x405156'
p344
tp345
sI1
(S'0x405157'
p346
S'0x40515c'
p347
tp348
sI2
(S'0x40515d'
p349
S'0x405164'
p350
tp351
sI3
(S'0x405165'
p352
S'0x40517a'
p353
tp354
sI4
(S'0x40517b'
p355
S'0x40517e'
p356
tp357
sI5
(S'0x40517f'
p358
S'0x40519d'
p359
tp360
sI6
(S'0x40519e'
p361
S'0x4051a5'
p362
tp363
sI7
(S'0x4051a6'
p364
S'0x4051aa'
p365
tp366
sI8
(S'0x4051ab'
p367
S'0x4051c0'
p368
tp369
sI9
(S'0x4051c1'
p370
S'0x4051c2'
p371
tp372
sI10
(S'0x4051c3'
p373
S'0x4051c8'
p374
tp375
sI11
(S'0x4051c9'
p376
S'0x4051de'
p377
tp378
sI12
(S'0x4051df'
p379
S'0x4051e0'
p380
tp381
sI13
(S'0x4051e1'
p382
S'0x4051f6'
p383
tp384
sI14
(S'0x4051f7'
p385
S'0x4051fc'
p386
tp387
sI15
(S'0x4051fd'
p388
S'0x405206'
p389
tp390
ssS'strnlen'
p391
(dp392
I0
(S'0x61a664'
p393
S'0x61a667'
p394
tp395
ssS'mincore_get_vma'
p396
(dp397
I0
(S'0x403a70'
p398
S'0x403a83'
p399
tp400
sI1
(S'0x403a84'
p401
S'0x403a88'
p402
tp403
sI2
(S'0x403a89'
p404
S'0x403abe'
p405
tp406
ssS'perror'
p407
(dp408
I0
(S'0x61a6dc'
p409
S'0x61a6df'
p410
tp411
ssS'wcwidth@@GLIBC_2.2.5'
p412
(dp413
I0
(S'0x61a58c'
p414
S'0x61a58f'
p415
tp416
ssS'iconv_open'
p417
(dp418
I0
(S'0x61a704'
p419
S'0x61a707'
p420
tp421
ssS'c_isdigit'
p422
(dp423
I0
(S'0x4069f0'
p424
S'0x4069f9'
p425
tp426
ssS'die'
p427
(dp428
I0
(S'0x402d50'
p429
S'0x402dac'
p430
tp431
sI1
(S'0x402dad'
p432
S'0x402df1'
p433
tp434
sI2
(S'0x402df2'
p435
S'0x402e2b'
p436
tp437
sI3
(S'0x402e2c'
p438
S'0x402e3d'
p439
tp440
sI4
(S'0x402e3e'
p441
S'0x402e4a'
p442
tp443
sI5
(S'0x402e4b'
p444
S'0x402e55'
p445
tp446
ssS'str_iconv'
p447
(dp448
I0
(S'0x406890'
p449
S'0x40689e'
p450
tp451
sI1
(S'0x40689f'
p452
S'0x4068b3'
p453
tp454
sI2
(S'0x4068b4'
p455
S'0x4068c4'
p456
tp457
sI3
(S'0x4068c5'
p458
S'0x4068da'
p459
tp460
sI4
(S'0x4068db'
p461
S'0x4068e6'
p462
tp463
sI5
(S'0x4068e7'
p464
S'0x4068ee'
p465
tp466
sI6
(S'0x4068ef'
p467
S'0x4068f2'
p468
tp469
sI7
(S'0x4068f3'
p470
S'0x406902'
p471
tp472
sI8
(S'0x406903'
p473
S'0x40690f'
p474
tp475
sI9
(S'0x406910'
p476
S'0x406924'
p477
tp478
sI10
(S'0x406925'
p479
S'0x406932'
p480
tp481
ssS'ximemdup'
p482
(dp483
I0
(S'0x404ce0'
p484
S'0x404d0c'
p485
tp486
ssS'knuth_morris_pratt'
p487
(dp488
I0
(S'0x406020'
p489
S'0x40603f'
p490
tp491
sI1
(S'0x406040'
p492
S'0x406046'
p493
tp494
sI2
(S'0x406047'
p495
S'0x40604b'
p496
tp497
sI3
(S'0x40604c'
p498
S'0x406060'
p499
tp500
sI4
(S'0x406061'
p501
S'0x40608b'
p502
tp503
sI5
(S'0x40608c'
p504
S'0x406099'
p505
tp506
sI6
(S'0x40609a'
p507
S'0x4060a2'
p508
tp509
sI7
(S'0x4060b0'
p510
S'0x4060b9'
p511
tp512
sI8
(S'0x4060ba'
p513
S'0x4060c6'
p514
tp515
sI9
(S'0x4060c7'
p516
S'0x4060cf'
p517
tp518
sI10
(S'0x4060d0'
p519
S'0x4060d4'
p520
tp521
sI11
(S'0x4060d5'
p522
S'0x4060dd'
p523
tp524
sI12
(S'0x4060de'
p525
S'0x4060df'
p526
tp527
sI13
(S'0x4060e0'
p528
S'0x4060e6'
p529
tp530
sI14
(S'0x4060e7'
p531
S'0x4060f5'
p532
tp533
sI15
(S'0x4060f6'
p534
S'0x4060fc'
p535
tp536
sI16
(S'0x406100'
p537
S'0x406108'
p538
tp539
sI17
(S'0x406109'
p540
S'0x40610c'
p541
tp542
sI18
(S'0x40610d'
p543
S'0x406115'
p544
tp545
sI19
(S'0x406116'
p546
S'0x40611a'
p547
tp548
sI20
(S'0x40611b'
p549
S'0x40611f'
p550
tp551
sI21
(S'0x406120'
p552
S'0x40612b'
p553
tp554
sI22
(S'0x40612c'
p555
S'0x406131'
p556
tp557
sI23
(S'0x406132'
p558
S'0x406142'
p559
tp560
sI24
(S'0x406143'
p561
S'0x406146'
p562
tp563
sI25
(S'0x406147'
p564
S'0x406149'
p565
tp566
sI26
(S'0x40614a'
p567
S'0x406150'
p568
tp569
sI27
(S'0x406151'
p570
S'0x40615d'
p571
tp572
ssS'cmp'
p573
(dp574
I0
(S'0x402480'
p575
S'0x4024bc'
p576
tp577
sI1
(S'0x4024bd'
p578
S'0x4024dc'
p579
tp580
sI2
(S'0x4024e0'
p581
S'0x4024f0'
p582
tp583
sI3
(S'0x4024f1'
p584
S'0x4024f9'
p585
tp586
sI4
(S'0x4024fa'
p587
S'0x402505'
p588
tp589
sI5
(S'0x402506'
p590
S'0x402518'
p591
tp592
sI6
(S'0x402519'
p593
S'0x402528'
p594
tp595
sI7
(S'0x402529'
p596
S'0x40253f'
p597
tp598
sI8
(S'0x402540'
p599
S'0x402565'
p600
tp601
sI9
(S'0x402566'
p602
S'0x40256f'
p603
tp604
sI10
(S'0x402570'
p605
S'0x40257b'
p606
tp607
sI11
(S'0x40257c'
p608
S'0x402588'
p609
tp610
sI12
(S'0x402589'
p611
S'0x402596'
p612
tp613
sI13
(S'0x402597'
p614
S'0x40259f'
p615
tp616
sI14
(S'0x4025a0'
p617
S'0x4025c5'
p618
tp619
sI15
(S'0x4025c6'
p620
S'0x4025ce'
p621
tp622
sI16
(S'0x4025cf'
p623
S'0x4025d0'
p624
tp625
sI17
(S'0x4025e0'
p626
S'0x4025e9'
p627
tp628
sI18
(S'0x4025ea'
p629
S'0x4025ef'
p630
tp631
sI19
(S'0x4025f0'
p632
S'0x4025f4'
p633
tp634
sI20
(S'0x4025f5'
p635
S'0x4025f9'
p636
tp637
sI21
(S'0x4025fa'
p638
S'0x40261f'
p639
tp640
sI22
(S'0x402620'
p641
S'0x402660'
p642
tp643
sI23
(S'0x402661'
p644
S'0x402685'
p645
tp646
sI24
(S'0x402686'
p647
S'0x4026b0'
p648
tp649
sI25
(S'0x4026b1'
p650
S'0x4026b5'
p651
tp652
sI26
(S'0x4026b6'
p653
S'0x4026ba'
p654
tp655
sI27
(S'0x4026bb'
p656
S'0x4026bf'
p657
tp658
sI28
(S'0x4026c0'
p659
S'0x4026c8'
p660
tp661
sI29
(S'0x4026c9'
p662
S'0x40272d'
p663
tp664
sI30
(S'0x40272e'
p665
S'0x40273d'
p666
tp667
sI31
(S'0x40273e'
p668
S'0x402741'
p669
tp670
sI32
(S'0x402742'
p671
S'0x402766'
p672
tp673
sI33
(S'0x402767'
p674
S'0x402782'
p675
tp676
sI34
(S'0x402783'
p677
S'0x40278b'
p678
tp679
sI35
(S'0x40278c'
p680
S'0x402797'
p681
tp682
sI36
(S'0x402798'
p683
S'0x4027c9'
p684
tp685
sI37
(S'0x4027ca'
p686
S'0x402843'
p687
tp688
sI38
(S'0x402850'
p689
S'0x402895'
p690
tp691
sI39
(S'0x402896'
p692
S'0x40289e'
p693
tp694
sI40
(S'0x40289f'
p695
S'0x4028b2'
p696
tp697
sI41
(S'0x4028b3'
p698
S'0x4028d8'
p699
tp700
sI42
(S'0x4028d9'
p701
S'0x4028f3'
p702
tp703
sI43
(S'0x4028f4'
p704
S'0x402905'
p705
tp706
sI44
(S'0x402906'
p707
S'0x40290f'
p708
tp709
sI45
(S'0x402910'
p710
S'0x402925'
p711
tp712
sI46
(S'0x402926'
p713
S'0x402933'
p714
tp715
sI47
(S'0x402934'
p716
S'0x402940'
p717
tp718
sI48
(S'0x402941'
p719
S'0x40295a'
p720
tp721
sI49
(S'0x40295b'
p722
S'0x402987'
p723
tp724
sI50
(S'0x402988'
p725
S'0x4029a7'
p726
tp727
sI51
(S'0x4029a8'
p728
S'0x4029ac'
p729
tp730
sI52
(S'0x4029ad'
p731
S'0x4029d5'
p732
tp733
sI53
(S'0x4029d6'
p734
S'0x4029df'
p735
tp736
sI54
(S'0x4029e0'
p737
S'0x4029e8'
p738
tp739
sI55
(S'0x4029e9'
p740
S'0x4029fd'
p741
tp742
sI56
(S'0x4029fe'
p743
S'0x402a19'
p744
tp745
sI57
(S'0x402a1a'
p746
S'0x402a1e'
p747
tp748
sI58
(S'0x402a1f'
p749
S'0x402a3c'
p750
tp751
sI59
(S'0x402a3d'
p752
S'0x402a98'
p753
tp754
sI60
(S'0x402a99'
p755
S'0x402ac8'
p756
tp757
sI61
(S'0x402ac9'
p758
S'0x402acf'
p759
tp760
sI62
(S'0x402ad0'
p761
S'0x402ad9'
p762
tp763
sI63
(S'0x402ada'
p764
S'0x402aeb'
p765
tp766
sI64
(S'0x402aec'
p767
S'0x402afd'
p768
tp769
sI65
(S'0x402afe'
p770
S'0x402b0e'
p771
tp772
sI66
(S'0x402b0f'
p773
S'0x402b1e'
p774
tp775
sI67
(S'0x402b1f'
p776
S'0x402b2e'
p777
tp778
ssS'strncmp'
p779
(dp780
I0
(S'0x61a604'
p781
S'0x61a607'
p782
tp783
ssS'.strcmp'
p784
(dp785
I0
(S'0x4017d0'
p786
S'0x4017d5'
p787
tp788
ssS'fcntl@@GLIBC_2.2.5'
p789
(dp790
I0
(S'0x61a508'
p791
S'0x61a50b'
p792
tp793
ssS'mem_cd_iconv'
p794
(dp795
I0
(S'0x406370'
p796
S'0x4063d6'
p797
tp798
sI1
(S'0x4063e0'
p799
S'0x4063e8'
p800
tp801
sI2
(S'0x4063e9'
p802
S'0x4063ec'
p803
tp804
sI3
(S'0x4063ed'
p805
S'0x4063f4'
p806
tp807
sI4
(S'0x4063f5'
p808
S'0x40641d'
p809
tp810
sI5
(S'0x40641e'
p811
S'0x406429'
p812
tp813
sI6
(S'0x40642a'
p814
S'0x406433'
p815
tp816
sI7
(S'0x406434'
p817
S'0x40643a'
p818
tp819
sI8
(S'0x40643b'
p820
S'0x40643f'
p821
tp822
sI9
(S'0x406440'
p823
S'0x40647d'
p824
tp825
sI10
(S'0x40647e'
p826
S'0x406487'
p827
tp828
sI11
(S'0x406488'
p829
S'0x40649c'
p830
tp831
sI12
(S'0x40649d'
p832
S'0x4064a5'
p833
tp834
sI13
(S'0x4064a6'
p835
S'0x4064b2'
p836
tp837
sI14
(S'0x4064b3'
p838
S'0x4064bc'
p839
tp840
sI15
(S'0x4064bd'
p841
S'0x4064d0'
p842
tp843
sI16
(S'0x4064d1'
p844
S'0x406519'
p845
tp846
sI17
(S'0x406520'
p847
S'0x406523'
p848
tp849
sI18
(S'0x406524'
p850
S'0x40652b'
p851
tp852
sI19
(S'0x40652c'
p853
S'0x406549'
p854
tp855
sI20
(S'0x40654a'
p856
S'0x40655f'
p857
tp858
sI21
(S'0x406560'
p859
S'0x406573'
p860
tp861
sI22
(S'0x406574'
p862
S'0x406578'
p863
tp864
sI23
(S'0x406579'
p865
S'0x40659e'
p866
tp867
sI24
(S'0x40659f'
p868
S'0x4065aa'
p869
tp870
sI25
(S'0x4065ab'
p871
S'0x4065b4'
p872
tp873
sI26
(S'0x4065b5'
p874
S'0x4065bc'
p875
tp876
sI27
(S'0x4065bd'
p877
S'0x4065d4'
p878
tp879
sI28
(S'0x4065d5'
p880
S'0x4065e4'
p881
tp882
sI29
(S'0x4065e5'
p883
S'0x4065f2'
p884
tp885
sI30
(S'0x4065f3'
p886
S'0x4065fc'
p887
tp888
sI31
(S'0x4065fd'
p889
S'0x406601'
p890
tp891
ssS'memset'
p892
(dp893
I0
(S'0x61a660'
p894
S'0x61a663'
p895
tp896
ssS'.sigemptyset'
p897
(dp898
I0
(S'0x401800'
p899
S'0x401805'
p900
tp901
ssS'xpalloc'
p902
(dp903
I0
(S'0x404ac0'
p904
S'0x404afa'
p905
tp906
sI1
(S'0x404afb'
p907
S'0x404afc'
p908
tp909
sI2
(S'0x404afd'
p910
S'0x404b01'
p911
tp912
sI3
(S'0x404b02'
p913
S'0x404b0f'
p914
tp915
sI4
(S'0x404b10'
p916
S'0x404b14'
p917
tp918
sI5
(S'0x404b15'
p919
S'0x404b1a'
p920
tp921
sI6
(S'0x404b1b'
p922
S'0x404b26'
p923
tp924
sI7
(S'0x404b27'
p925
S'0x404b30'
p926
tp927
sI8
(S'0x404b31'
p928
S'0x404b32'
p929
tp930
sI9
(S'0x404b33'
p931
S'0x404b38'
p932
tp933
sI10
(S'0x404b39'
p934
S'0x404b4e'
p935
tp936
sI11
(S'0x404b4f'
p937
S'0x404b50'
p938
tp939
sI12
(S'0x404b51'
p940
S'0x404b66'
p941
tp942
sI13
(S'0x404b67'
p943
S'0x404b68'
p944
tp945
sI14
(S'0x404b69'
p946
S'0x404b8a'
p947
tp948
sI15
(S'0x404b8b'
p949
S'0x404b9b'
p950
tp951
sI16
(S'0x404b9c'
p952
S'0x404ba0'
p953
tp954
sI17
(S'0x404ba1'
p955
S'0x404ba7'
p956
tp957
sI18
(S'0x404ba8'
p958
S'0x404bb6'
p959
tp960
sI19
(S'0x404bb7'
p961
S'0x404bcf'
p962
tp963
sI20
(S'0x404bd0'
p964
S'0x404bd7'
p965
tp966
sI21
(S'0x404bd8'
p967
S'0x404bdc'
p968
tp969
sI22
(S'0x404bdd'
p970
S'0x404bde'
p971
tp972
sI23
(S'0x404bdf'
p973
S'0x404be3'
p974
tp975
sI24
(S'0x404be4'
p976
S'0x404bf1'
p977
tp978
sI25
(S'0x404bf2'
p979
S'0x404bf6'
p980
tp981
sI26
(S'0x404bf7'
p982
S'0x404bfc'
p983
tp984
sI27
(S'0x404bfd'
p985
S'0x404c08'
p986
tp987
sI28
(S'0x404c09'
p988
S'0x404c12'
p989
tp990
sI29
(S'0x404c13'
p991
S'0x404c14'
p992
tp993
sI30
(S'0x404c15'
p994
S'0x404c1a'
p995
tp996
sI31
(S'0x404c1b'
p997
S'0x404c30'
p998
tp999
sI32
(S'0x404c31'
p1000
S'0x404c32'
p1001
tp1002
sI33
(S'0x404c33'
p1003
S'0x404c48'
p1004
tp1005
sI34
(S'0x404c49'
p1006
S'0x404c4a'
p1007
tp1008
sI35
(S'0x404c4b'
p1009
S'0x404c4e'
p1010
tp1011
sI36
(S'0x404c4f'
p1012
S'0x404c58'
p1013
tp1014
sI37
(S'0x404c59'
p1015
S'0x404c66'
p1016
tp1017
sI38
(S'0x404c67'
p1018
S'0x404c6b'
p1019
tp1020
ssS'.mincore'
p1021
(dp1022
I0
(S'0x401830'
p1023
S'0x401835'
p1024
tp1025
ssS'sigsegv_leave_handler'
p1026
(dp1027
I0
(S'0x4037b0'
p1028
S'0x4037c5'
p1029
tp1030
ssS'.term_proc'
p1031
(dp1032
I0
(S'0x406fc0'
p1033
S'0x406fc8'
p1034
tp1035
ssS'__ctype_get_mb_cur_max'
p1036
(dp1037
I0
(S'0x61a638'
p1038
S'0x61a63b'
p1039
tp1040
ssS'close'
p1041
(dp1042
I0
(S'0x61a668'
p1043
S'0x61a66b'
p1044
tp1045
ssS'xreallocarray'
p1046
(dp1047
I0
(S'0x404960'
p1048
S'0x404977'
p1049
tp1050
sI1
(S'0x404978'
p1051
S'0x40497c'
p1052
tp1053
sI2
(S'0x40497d'
p1054
S'0x404981'
p1055
tp1056
sI3
(S'0x404982'
p1057
S'0x404986'
p1058
tp1059
sI4
(S'0x404987'
p1060
S'0x40498c'
p1061
tp1062
sI5
(S'0x40498d'
p1063
S'0x404991'
p1064
tp1065
ssS'strchr'
p1066
(dp1067
I0
(S'0x61a64c'
p1068
S'0x61a64f'
p1069
tp1070
ssS'bkm_scale_by_power'
p1071
(dp1072
I0
(S'0x405210'
p1073
S'0x40521a'
p1074
tp1075
sI1
(S'0x40521b'
p1076
S'0x40522f'
p1077
tp1078
sI2
(S'0x405230'
p1079
S'0x405241'
p1080
tp1081
sI3
(S'0x405242'
p1082
S'0x405243'
p1083
tp1084
sI4
(S'0x405244'
p1085
S'0x405245'
p1086
tp1087
sI5
(S'0x405246'
p1088
S'0x405252'
p1089
tp1090
ssS'.sigaction'
p1091
(dp1092
I0
(S'0x401610'
p1093
S'0x401615'
p1094
tp1095
ssS'__ctype_b_loc'
p1096
(dp1097
I0
(S'0x61a700'
p1098
S'0x61a703'
p1099
tp1100
ssS'rof_close'
p1101
(dp1102
I0
(S'0x403f90'
p1103
S'0x403f9c'
p1104
tp1105
sI1
(S'0x403f9d'
p1106
S'0x403fa5'
p1107
tp1108
sI2
(S'0x403fa6'
p1109
S'0x403fa7'
p1110
tp1111
ssS'bindtextdomain@@GLIBC_2.2.5'
p1112
(dp1113
I0
(S'0x61a518'
p1114
S'0x61a51b'
p1115
tp1116
ssS'strchr@@GLIBC_2.2.5'
p1117
(dp1118
I0
(S'0x61a534'
p1119
S'0x61a537'
p1120
tp1121
ssS'rpl_fcntl'
p1122
(dp1123
I0
(S'0x406ac0'
p1124
S'0x406aca'
p1125
tp1126
sI1
(S'0x406acb'
p1127
S'0x406b01'
p1128
tp1129
sI2
(S'0x406b02'
p1130
S'0x406b3f'
p1131
tp1132
sI3
(S'0x406b40'
p1133
S'0x406b49'
p1134
tp1135
sI4
(S'0x406b4a'
p1136
S'0x406b53'
p1137
tp1138
sI5
(S'0x406b54'
p1139
S'0x406b57'
p1140
tp1141
sI6
(S'0x406b58'
p1142
S'0x406b65'
p1143
tp1144
sI7
(S'0x406b66'
p1145
S'0x406b78'
p1146
tp1147
sI8
(S'0x406b79'
p1148
S'0x406b83'
p1149
tp1150
sI9
(S'0x406b84'
p1151
S'0x406b8d'
p1152
tp1153
sI10
(S'0x406b8e'
p1154
S'0x406b97'
p1155
tp1156
sI11
(S'0x406b98'
p1157
S'0x406ba6'
p1158
tp1159
sI12
(S'0x406ba7'
p1160
S'0x406bb0'
p1161
tp1162
sI13
(S'0x406bb1'
p1163
S'0x406bc0'
p1164
tp1165
sI14
(S'0x406bc1'
p1166
S'0x406bce'
p1167
tp1168
sI15
(S'0x406bcf'
p1169
S'0x406bdf'
p1170
tp1171
sI16
(S'0x406be0'
p1172
S'0x406be4'
p1173
tp1174
sI17
(S'0x406be5'
p1175
S'0x406bee'
p1176
tp1177
sI18
(S'0x406bef'
p1178
S'0x406bfe'
p1179
tp1180
sI19
(S'0x406bff'
p1181
S'0x406c08'
p1182
tp1183
sI20
(S'0x406c09'
p1184
S'0x406c18'
p1185
tp1186
sI21
(S'0x406c19'
p1187
S'0x406c26'
p1188
tp1189
sI22
(S'0x406c27'
p1190
S'0x406c35'
p1191
tp1192
sI23
(S'0x406c36'
p1193
S'0x406c43'
p1194
tp1195
sI24
(S'0x406c44'
p1196
S'0x406c52'
p1197
tp1198
sI25
(S'0x406c53'
p1199
S'0x406c60'
p1200
tp1201
sI26
(S'0x406c61'
p1202
S'0x406c72'
p1203
tp1204
ssS'munmap'
p1205
(dp1206
I0
(S'0x61a6c0'
p1207
S'0x61a6c3'
p1208
tp1209
ssS'fcntl'
p1210
(dp1211
I0
(S'0x61a620'
p1212
S'0x61a623'
p1213
tp1214
ssS'c_stack_action'
p1215
(dp1216
I0
(S'0x402c70'
p1217
S'0x402cd9'
p1218
tp1219
sI1
(S'0x402cda'
p1220
S'0x402ceb'
p1221
tp1222
sI2
(S'0x402cec'
p1223
S'0x402cfb'
p1224
tp1225
sI3
(S'0x402cfc'
p1226
S'0x402cff'
p1227
tp1228
ssS'.getopt_long'
p1229
(dp1230
I0
(S'0x4016d0'
p1231
S'0x4016d5'
p1232
tp1233
ssS'ferror_unlocked@@GLIBC_2.2.5'
p1234
(dp1235
I0
(S'0x61a568'
p1236
S'0x61a56b'
p1237
tp1238
ssS'mb_copy'
p1239
(dp1240
I0
(S'0x406e10'
p1241
S'0x406e26'
p1242
tp1243
sI1
(S'0x406e27'
p1244
S'0x406e36'
p1245
tp1246
sI2
(S'0x406e37'
p1247
S'0x406e4c'
p1248
tp1249
sI3
(S'0x406e4d'
p1250
S'0x406e53'
p1251
tp1252
sI4
(S'0x406e54'
p1253
S'0x406e59'
p1254
tp1255
ssS'offtostr'
p1256
(dp1257
I0
(S'0x402ec0'
p1258
S'0x402ec8'
p1259
tp1260
sI1
(S'0x402ec9'
p1261
S'0x402edf'
p1262
tp1263
sI2
(S'0x402ee0'
p1264
S'0x402f14'
p1265
tp1266
sI3
(S'0x402f15'
p1267
S'0x402f18'
p1268
tp1269
sI4
(S'0x402f19'
p1270
S'0x402f2f'
p1271
tp1272
sI5
(S'0x402f30'
p1273
S'0x402f64'
p1274
tp1275
sI6
(S'0x402f65'
p1276
S'0x402f6b'
p1277
tp1278
ssS'error'
p1279
(dp1280
I0
(S'0x61a6d4'
p1281
S'0x61a6d7'
p1282
tp1283
ssS'exit@@GLIBC_2.2.5'
p1284
(dp1285
I0
(S'0x61a5d0'
p1286
S'0x61a5d3'
p1287
tp1288
ssS'locale_charset'
p1289
(dp1290
I0
(S'0x4054a0'
p1291
S'0x4054c4'
p1292
tp1293
ssS'mbsinit'
p1294
(dp1295
I0
(S'0x61a6f4'
p1296
S'0x61a6f7'
p1297
tp1298
ssS'sigsegv_install_handler'
p1299
(dp1300
I0
(S'0x403610'
p1301
S'0x403620'
p1302
tp1303
ssS'sigaction'
p1304
(dp1305
I0
(S'0x61a614'
p1306
S'0x61a617'
p1307
tp1308
ssS'.__ctype_get_mb_cur_max'
p1309
(dp1310
I0
(S'0x4016a0'
p1311
S'0x4016a5'
p1312
tp1313
ssS'sigsegv_get_vma'
p1314
(dp1315
I0
(S'0x4039e0'
p1316
S'0x403a18'
p1317
tp1318
sI1
(S'0x403a19'
p1319
S'0x403a25'
p1320
tp1321
sI2
(S'0x403a26'
p1322
S'0x403a2d'
p1323
tp1324
sI3
(S'0x403a2e'
p1325
S'0x403a37'
p1326
tp1327
ssS'block_compare'
p1328
(dp1329
I0
(S'0x402b30'
p1330
S'0x402b37'
p1331
tp1332
sI1
(S'0x402b38'
p1333
S'0x402b3f'
p1334
tp1335
sI2
(S'0x402b40'
p1336
S'0x402b51'
p1337
tp1338
sI3
(S'0x402b52'
p1339
S'0x402b53'
p1340
tp1341
sI4
(S'0x402b54'
p1342
S'0x402b56'
p1343
tp1344
sI5
(S'0x402b57'
p1345
S'0x402b5c'
p1346
tp1347
sI6
(S'0x402b5d'
p1348
S'0x402b6f'
p1349
tp1350
sI7
(S'0x402b70'
p1351
S'0x402b7f'
p1352
tp1353
sI8
(S'0x402b80'
p1354
S'0x402b83'
p1355
tp1356
ssS'frame_dummy'
p1357
(dp1358
I0
(S'0x401ab0'
p1359
S'0x401ab6'
p1360
tp1361
ssS'vma_iterate_proc'
p1362
(dp1363
I0
(S'0x403ac0'
p1364
S'0x403ae2'
p1365
tp1366
sI1
(S'0x403ae3'
p1367
S'0x403b08'
p1368
tp1369
sI2
(S'0x403b09'
p1370
S'0x403b1f'
p1371
tp1372
sI3
(S'0x403b20'
p1373
S'0x403b30'
p1374
tp1375
sI4
(S'0x403b31'
p1376
S'0x403b45'
p1377
tp1378
sI5
(S'0x403b46'
p1379
S'0x403b4f'
p1380
tp1381
sI6
(S'0x403b50'
p1382
S'0x403b5c'
p1383
tp1384
sI7
(S'0x403b5d'
p1385
S'0x403b61'
p1386
tp1387
sI8
(S'0x403b62'
p1388
S'0x403b6b'
p1389
tp1390
sI9
(S'0x403b6c'
p1391
S'0x403b79'
p1392
tp1393
sI10
(S'0x403b7a'
p1394
S'0x403b81'
p1395
tp1396
sI11
(S'0x403b82'
p1397
S'0x403b8a'
p1398
tp1399
sI12
(S'0x403b8b'
p1400
S'0x403b9b'
p1401
tp1402
sI13
(S'0x403b9c'
p1403
S'0x403b9d'
p1404
tp1405
sI14
(S'0x403ba0'
p1406
S'0x403ba4'
p1407
tp1408
sI15
(S'0x403ba5'
p1409
S'0x403bb3'
p1410
tp1411
sI16
(S'0x403bb4'
p1412
S'0x403bb8'
p1413
tp1414
sI17
(S'0x403bb9'
p1415
S'0x403bc5'
p1416
tp1417
sI18
(S'0x403bc6'
p1418
S'0x403bd3'
p1419
tp1420
sI19
(S'0x403bd4'
p1421
S'0x403bd8'
p1422
tp1423
sI20
(S'0x403bd9'
p1424
S'0x403be7'
p1425
tp1426
ssS'__do_global_dtors_aux'
p1427
(dp1428
I0
(S'0x401a80'
p1429
S'0x401a88'
p1430
tp1431
sI1
(S'0x401a89'
p1432
S'0x401a9a'
p1433
tp1434
sI2
(S'0x401aa0'
p1435
S'0x401aa1'
p1436
tp1437
ssS'wcwidth'
p1438
(dp1439
I0
(S'0x61a6a4'
p1440
S'0x61a6a7'
p1441
tp1442
ssS'.read'
p1443
(dp1444
I0
(S'0x401780'
p1445
S'0x401785'
p1446
tp1447
ssS'file_position'
p1448
(dp1449
I0
(S'0x402440'
p1450
S'0x40244c'
p1451
tp1452
sI1
(S'0x40244d'
p1453
S'0x402474'
p1454
tp1455
sI2
(S'0x402475'
p1456
S'0x40247e'
p1457
tp1458
ssS'mmap'
p1459
(dp1460
I0
(S'0x61a640'
p1461
S'0x61a643'
p1462
tp1463
ssS'realloc@@GLIBC_2.2.5'
p1464
(dp1465
I0
(S'0x61a5a4'
p1466
S'0x61a5a7'
p1467
tp1468
ssS'xmalloc'
p1469
(dp1470
I0
(S'0x4049a0'
p1471
S'0x4049af'
p1472
tp1473
ssS'.__assert_fail'
p1474
(dp1475
I0
(S'0x401730'
p1476
S'0x401735'
p1477
tp1478
ssS'iswalnum'
p1479
(dp1480
I0
(S'0x61a6a8'
p1481
S'0x61a6ab'
p1482
tp1483
ssS'register_tm_clones'
p1484
(dp1485
I0
(S'0x401a40'
p1486
S'0x401a62'
p1487
tp1488
sI1
(S'0x401a63'
p1489
S'0x401a6c'
p1490
tp1491
sI2
(S'0x401a6d'
p1492
S'0x401a74'
p1493
tp1494
sI3
(S'0x401a78'
p1495
S'0x401a79'
p1496
tp1497
ssS'realloc'
p1498
(dp1499
I0
(S'0x61a6bc'
p1500
S'0x61a6bf'
p1501
tp1502
ssS'install_for'
p1503
(dp1504
I0
(S'0x403630'
p1505
S'0x403778'
p1506
tp1507
ssS'.fputs_unlocked'
p1508
(dp1509
I0
(S'0x401790'
p1510
S'0x401795'
p1511
tp1512
ssS'mbuiter_multi_next'
p1513
(dp1514
I0
(S'0x406160'
p1515
S'0x406171'
p1516
tp1517
sI1
(S'0x406172'
p1518
S'0x406179'
p1519
tp1520
sI2
(S'0x40617a'
p1521
S'0x406189'
p1522
tp1523
sI3
(S'0x40618a'
p1524
S'0x4061a4'
p1525
tp1526
sI4
(S'0x4061a5'
p1527
S'0x4061b5'
p1528
tp1529
sI5
(S'0x4061b6'
p1530
S'0x4061b8'
p1531
tp1532
sI6
(S'0x4061b9'
p1533
S'0x4061ef'
p1534
tp1535
sI7
(S'0x4061f0'
p1536
S'0x4061f4'
p1537
tp1538
sI8
(S'0x4061f5'
p1539
S'0x4061fa'
p1540
tp1541
sI9
(S'0x4061fb'
p1542
S'0x406204'
p1543
tp1544
sI10
(S'0x406205'
p1545
S'0x406215'
p1546
tp1547
sI11
(S'0x406216'
p1548
S'0x40621b'
p1549
tp1550
sI12
(S'0x40621c'
p1551
S'0x40622b'
p1552
tp1553
sI13
(S'0x40622c'
p1554
S'0x406230'
p1555
tp1556
sI14
(S'0x406231'
p1557
S'0x40623d'
p1558
tp1559
sI15
(S'0x40623e'
p1560
S'0x406241'
p1561
tp1562
sI16
(S'0x406242'
p1563
S'0x406245'
p1564
tp1565
sI17
(S'0x406246'
p1566
S'0x406251'
p1567
tp1568
sI18
(S'0x406252'
p1569
S'0x40626a'
p1570
tp1571
sI19
(S'0x40626b'
p1572
S'0x406283'
p1573
tp1574
sI20
(S'0x406284'
p1575
S'0x40629c'
p1576
tp1577
ssS'printf'
p1578
(dp1579
I0
(S'0x61a650'
p1580
S'0x61a653'
p1581
tp1582
ssS'_start'
p1583
(dp1584
I0
(S'0x4019d0'
p1585
S'0x4019fa'
p1586
tp1587
ssS'version_etc_arn'
p1588
(dp1589
I0
(S'0x404530'
p1590
S'0x40454c'
p1591
tp1592
sI1
(S'0x40454d'
p1593
S'0x404560'
p1594
tp1595
sI2
(S'0x404561'
p1596
S'0x404575'
p1597
tp1598
sI3
(S'0x404576'
p1599
S'0x4045e0'
p1600
tp1601
sI4
(S'0x4045e1'
p1602
S'0x4045e7'
p1603
tp1604
sI5
(S'0x4045e8'
p1605
S'0x40460d'
p1606
tp1607
sI6
(S'0x40460e'
p1608
S'0x404617'
p1609
tp1610
sI7
(S'0x404618'
p1611
S'0x404641'
p1612
tp1613
sI8
(S'0x404642'
p1614
S'0x40466f'
p1615
tp1616
sI9
(S'0x404670'
p1617
S'0x404694'
p1618
tp1619
sI10
(S'0x404695'
p1620
S'0x4046c1'
p1621
tp1622
sI11
(S'0x4046c2'
p1623
S'0x4046eb'
p1624
tp1625
sI12
(S'0x4046ec'
p1626
S'0x40471b'
p1627
tp1628
sI13
(S'0x40471c'
p1629
S'0x404720'
p1630
tp1631
sI14
(S'0x404721'
p1632
S'0x404750'
p1633
tp1634
sI15
(S'0x404751'
p1635
S'0x40477a'
p1636
tp1637
sI16
(S'0x40477b'
p1638
S'0x40477f'
p1639
tp1640
sI17
(S'0x404780'
p1641
S'0x404783'
p1642
tp1643
sI18
(S'0x404784'
p1644
S'0x404790'
p1645
tp1646
sI19
(S'0x404791'
p1647
S'0x40479a'
p1648
tp1649
ssS'.textdomain'
p1650
(dp1651
I0
(S'0x401660'
p1652
S'0x401665'
p1653
tp1654
ssS'raise'
p1655
(dp1656
I0
(S'0x61a5f0'
p1657
S'0x61a5f3'
p1658
tp1659
ssS'puts'
p1660
(dp1661
I0
(S'0x61a610'
p1662
S'0x61a613'
p1663
tp1664
ssS'ximemdup0'
p1665
(dp1666
I0
(S'0x404d10'
p1667
S'0x404d42'
p1668
tp1669
ssS'error@@GLIBC_2.2.5'
p1670
(dp1671
I0
(S'0x61a5bc'
p1672
S'0x61a5bf'
p1673
tp1674
ssS'.setlocale'
p1675
(dp1676
I0
(S'0x4018c0'
p1677
S'0x4018c5'
p1678
tp1679
ssS'c_isalpha'
p1680
(dp1681
I0
(S'0x4069a0'
p1682
S'0x4069a7'
p1683
tp1684
sI1
(S'0x4069a8'
p1685
S'0x4069b9'
p1686
tp1687
sI2
(S'0x4069ba'
p1688
S'0x4069bc'
p1689
tp1690
ssS'mincore@@GLIBC_2.2.5'
p1691
(dp1692
I0
(S'0x61a588'
p1693
S'0x61a58b'
p1694
tp1695
ssS'strtoimax'
p1696
(dp1697
I0
(S'0x61a5f8'
p1698
S'0x61a5fb'
p1699
tp1700
ssS'mbuiter_multi_copy'
p1701
(dp1702
I0
(S'0x4062b0'
p1703
S'0x4062b8'
p1704
tp1705
sI1
(S'0x4062b9'
p1706
S'0x4062c2'
p1707
tp1708
sI2
(S'0x4062c3'
p1709
S'0x4062ca'
p1710
tp1711
sI3
(S'0x4062cb'
p1712
S'0x4062df'
p1713
tp1714
ssS'strdup'
p1715
(dp1716
I0
(S'0x61a6f0'
p1717
S'0x61a6f3'
p1718
tp1719
ssS'mbsstr_trimmed_wordbounded'
p1720
(dp1721
I0
(S'0x403090'
p1722
S'0x4030cc'
p1723
tp1724
sI1
(S'0x4030d0'
p1725
S'0x4030d5'
p1726
tp1727
sI2
(S'0x4030d6'
p1728
S'0x4030de'
p1729
tp1730
sI3
(S'0x4030df'
p1731
S'0x4030e8'
p1732
tp1733
sI4
(S'0x4030e9'
p1734
S'0x4030f8'
p1735
tp1736
sI5
(S'0x4030f9'
p1737
S'0x403106'
p1738
tp1739
sI6
(S'0x403107'
p1740
S'0x403126'
p1741
tp1742
sI7
(S'0x403127'
p1743
S'0x40312b'
p1744
tp1745
sI8
(S'0x403130'
p1746
S'0x40314c'
p1747
tp1748
sI9
(S'0x40314d'
p1749
S'0x403161'
p1750
tp1751
sI10
(S'0x403162'
p1752
S'0x403165'
p1753
tp1754
sI11
(S'0x403166'
p1755
S'0x40316a'
p1756
tp1757
sI12
(S'0x403170'
p1758
S'0x403182'
p1759
tp1760
sI13
(S'0x403183'
p1761
S'0x403196'
p1762
tp1763
sI14
(S'0x403197'
p1764
S'0x4031a9'
p1765
tp1766
sI15
(S'0x4031aa'
p1767
S'0x4031ba'
p1768
tp1769
sI16
(S'0x4031bb'
p1770
S'0x4031bf'
p1771
tp1772
sI17
(S'0x4031c0'
p1773
S'0x4031da'
p1774
tp1775
sI18
(S'0x4031db'
p1776
S'0x4031fd'
p1777
tp1778
sI19
(S'0x4031fe'
p1779
S'0x403201'
p1780
tp1781
sI20
(S'0x403202'
p1782
S'0x40320c'
p1783
tp1784
sI21
(S'0x40320d'
p1785
S'0x403239'
p1786
tp1787
sI22
(S'0x403240'
p1788
S'0x403258'
p1789
tp1790
sI23
(S'0x403259'
p1791
S'0x40326c'
p1792
tp1793
sI24
(S'0x40326d'
p1794
S'0x403273'
p1795
tp1796
sI25
(S'0x403274'
p1797
S'0x403282'
p1798
tp1799
sI26
(S'0x403283'
p1800
S'0x403289'
p1801
tp1802
sI27
(S'0x40328a'
p1803
S'0x40328e'
p1804
tp1805
sI28
(S'0x403290'
p1806
S'0x4032a3'
p1807
tp1808
sI29
(S'0x4032a4'
p1809
S'0x4032ad'
p1810
tp1811
sI30
(S'0x4032ae'
p1812
S'0x4032b7'
p1813
tp1814
sI31
(S'0x4032b8'
p1815
S'0x4032c2'
p1816
tp1817
sI32
(S'0x4032c3'
p1818
S'0x4032c8'
p1819
tp1820
sI33
(S'0x4032c9'
p1821
S'0x4032cd'
p1822
tp1823
sI34
(S'0x4032ce'
p1824
S'0x4032d6'
p1825
tp1826
sI35
(S'0x4032d7'
p1827
S'0x4032de'
p1828
tp1829
sI36
(S'0x4032df'
p1830
S'0x40330a'
p1831
tp1832
sI37
(S'0x40330b'
p1833
S'0x403311'
p1834
tp1835
sI38
(S'0x403312'
p1836
S'0x40331e'
p1837
tp1838
sI39
(S'0x40331f'
p1839
S'0x40333e'
p1840
tp1841
sI40
(S'0x40333f'
p1842
S'0x403343'
p1843
tp1844
ssS'iswspace'
p1845
(dp1846
I0
(S'0x61a6cc'
p1847
S'0x61a6cf'
p1848
tp1849
ssS'.munmap'
p1850
(dp1851
I0
(S'0x4018b0'
p1852
S'0x4018b5'
p1853
tp1854
ssS'nonnull'
p1855
(dp1856
I0
(S'0x4049b0'
p1857
S'0x4049b4'
p1858
tp1859
sI1
(S'0x4049b5'
p1860
S'0x4049b8'
p1861
tp1862
sI2
(S'0x4049b9'
p1863
S'0x4049be'
p1864
tp1865
ssS'.iconv'
p1866
(dp1867
I0
(S'0x4015f0'
p1868
S'0x4015f5'
p1869
tp1870
ssS'ferror_unlocked'
p1871
(dp1872
I0
(S'0x61a680'
p1873
S'0x61a683'
p1874
tp1875
ssS'__errno_location@@GLIBC_2.2.5'
p1876
(dp1877
I0
(S'0x61a4e8'
p1878
S'0x61a4eb'
p1879
tp1880
ssS'rpl_fcntl_DUPFD'
p1881
(dp1882
I0
(S'0x406c80'
p1883
S'0x406c8d'
p1884
tp1885
ssS'.nl_langinfo'
p1886
(dp1887
I0
(S'0x401870'
p1888
S'0x401875'
p1889
tp1890
ssS'mmalloca'
p1891
(dp1892
I0
(S'0x406d60'
p1893
S'0x406d79'
p1894
tp1895
sI1
(S'0x406d7a'
p1896
S'0x406d7d'
p1897
tp1898
sI2
(S'0x406d7e'
p1899
S'0x406d95'
p1900
tp1901
sI3
(S'0x406d96'
p1902
S'0x406da0'
p1903
tp1904
sI4
(S'0x406da1'
p1905
S'0x406dbe'
p1906
tp1907
sI5
(S'0x406dbf'
p1908
S'0x406dc0'
p1909
tp1910
sI6
(S'0x406dc1'
p1911
S'0x406dc9'
p1912
tp1913
sI7
(S'0x406dca'
p1914
S'0x406dcb'
p1915
tp1916
sI8
(S'0x406dcc'
p1917
S'0x406dcc'
p1918
tp1919
ssS'mbiter_multi_reloc'
p1920
(dp1921
I0
(S'0x405600'
p1922
S'0x405607'
p1923
tp1924
ssS'memset@@GLIBC_2.2.5'
p1925
(dp1926
I0
(S'0x61a548'
p1927
S'0x61a54b'
p1928
tp1929
ssS'rof_scanf_lx'
p1930
(dp1931
I0
(S'0x403ea0'
p1932
S'0x403eb2'
p1933
tp1934
sI1
(S'0x403ec0'
p1935
S'0x403ec2'
p1936
tp1937
sI2
(S'0x403ec3'
p1938
S'0x403ec4'
p1939
tp1940
sI3
(S'0x403ec5'
p1941
S'0x403edf'
p1942
tp1943
sI4
(S'0x403ee0'
p1944
S'0x403eef'
p1945
tp1946
sI5
(S'0x403ef0'
p1947
S'0x403ef7'
p1948
tp1949
sI6
(S'0x403ef8'
p1950
S'0x403eff'
p1951
tp1952
sI7
(S'0x403f00'
p1953
S'0x403f04'
p1954
tp1955
sI8
(S'0x403f05'
p1956
S'0x403f0a'
p1957
tp1958
sI9
(S'0x403f0b'
p1959
S'0x403f0e'
p1960
tp1961
sI10
(S'0x403f0f'
p1962
S'0x403f15'
p1963
tp1964
sI11
(S'0x403f16'
p1965
S'0x403f1a'
p1966
tp1967
sI12
(S'0x403f1b'
p1968
S'0x403f25'
p1969
tp1970
ssS'bcmp@@GLIBC_2.2.5'
p1971
(dp1972
I0
(S'0x61a5a0'
p1973
S'0x61a5a3'
p1974
tp1975
ssS'close@@GLIBC_2.2.5'
p1976
(dp1977
I0
(S'0x61a550'
p1978
S'0x61a553'
p1979
tp1980
ssS'sigsegv_deinstall_handler'
p1981
(dp1982
I0
(S'0x403780'
p1983
S'0x403795'
p1984
tp1985
sI1
(S'0x403796'
p1986
S'0x403797'
p1987
tp1988
sI2
(S'0x403798'
p1989
S'0x4037a5'
p1990
tp1991
ssS'__errno_location'
p1992
(dp1993
I0
(S'0x61a600'
p1994
S'0x61a603'
p1995
tp1996
ssS'xstrtoimax'
p1997
(dp1998
I0
(S'0x404e60'
p1999
S'0x404e76'
p2000
tp2001
sI1
(S'0x404e77'
p2002
S'0x404eb9'
p2003
tp2004
sI2
(S'0x404eba'
p2005
S'0x404ec1'
p2006
tp2007
sI3
(S'0x404ec2'
p2008
S'0x404ed1'
p2009
tp2010
sI4
(S'0x404ed2'
p2011
S'0x404ed7'
p2012
tp2013
sI5
(S'0x404ed8'
p2014
S'0x404ee0'
p2015
tp2016
sI6
(S'0x404ee1'
p2017
S'0x404ef1'
p2018
tp2019
sI7
(S'0x404ef2'
p2020
S'0x404f05'
p2021
tp2022
sI8
(S'0x404f06'
p2023
S'0x404f17'
p2024
tp2025
sI9
(S'0x404f18'
p2026
S'0x404f2b'
p2027
tp2028
sI10
(S'0x404f2c'
p2029
S'0x404f41'
p2030
tp2031
sI11
(S'0x404f42'
p2032
S'0x404f53'
p2033
tp2034
sI12
(S'0x404f54'
p2035
S'0x404f58'
p2036
tp2037
sI13
(S'0x404f59'
p2038
S'0x404f61'
p2039
tp2040
sI14
(S'0x404f62'
p2041
S'0x404f74'
p2042
tp2043
sI15
(S'0x404f75'
p2044
S'0x404f83'
p2045
tp2046
sI16
(S'0x404f84'
p2047
S'0x404f8f'
p2048
tp2049
sI17
(S'0x404f90'
p2050
S'0x404fa0'
p2051
tp2052
sI18
(S'0x404fa1'
p2053
S'0x404fb5'
p2054
tp2055
sI19
(S'0x404fb6'
p2056
S'0x404fc3'
p2057
tp2058
sI20
(S'0x404fc4'
p2059
S'0x404fcb'
p2060
tp2061
sI21
(S'0x404fcc'
p2062
S'0x404fd7'
p2063
tp2064
sI22
(S'0x404fd8'
p2065
S'0x404fe3'
p2066
tp2067
sI23
(S'0x404fe4'
p2068
S'0x404fe8'
p2069
tp2070
sI24
(S'0x404fe9'
p2071
S'0x404ff2'
p2072
tp2073
sI25
(S'0x404ff3'
p2074
S'0x404ffc'
p2075
tp2076
sI26
(S'0x404ffd'
p2077
S'0x405010'
p2078
tp2079
sI27
(S'0x405011'
p2080
S'0x405025'
p2081
tp2082
sI28
(S'0x405026'
p2083
S'0x405039'
p2084
tp2085
sI29
(S'0x40503a'
p2086
S'0x40504d'
p2087
tp2088
sI30
(S'0x40504e'
p2089
S'0x405061'
p2090
tp2091
sI31
(S'0x405062'
p2092
S'0x40506d'
p2093
tp2094
sI32
(S'0x40506e'
p2095
S'0x40507e'
p2096
tp2097
sI33
(S'0x40507f'
p2098
S'0x40508f'
p2099
tp2100
sI34
(S'0x405090'
p2101
S'0x4050a0'
p2102
tp2103
sI35
(S'0x4050a1'
p2104
S'0x4050b1'
p2105
tp2106
sI36
(S'0x4050b2'
p2107
S'0x4050c2'
p2108
tp2109
sI37
(S'0x4050c3'
p2110
S'0x4050d3'
p2111
tp2112
sI38
(S'0x4050d4'
p2113
S'0x4050df'
p2114
tp2115
sI39
(S'0x4050e0'
p2116
S'0x4050e9'
p2117
tp2118
sI40
(S'0x4050ea'
p2119
S'0x4050ee'
p2120
tp2121
sI41
(S'0x4050ef'
p2122
S'0x40510c'
p2123
tp2124
sI42
(S'0x40510d'
p2125
S'0x405116'
p2126
tp2127
sI43
(S'0x405117'
p2128
S'0x405121'
p2129
tp2130
sI44
(S'0x405122'
p2131
S'0x405133'
p2132
tp2133
sI45
(S'0x405134'
p2134
S'0x40514c'
p2135
tp2136
ssS'rpl_mbrtowc'
p2137
(dp2138
I0
(S'0x405650'
p2139
S'0x405679'
p2140
tp2141
sI1
(S'0x40567a'
p2142
S'0x40567f'
p2143
tp2144
sI2
(S'0x405680'
p2145
S'0x40568a'
p2146
tp2147
sI3
(S'0x40568b'
p2148
S'0x405696'
p2149
tp2150
sI4
(S'0x405697'
p2151
S'0x4056a5'
p2152
tp2153
ssS'x2realloc'
p2154
(dp2155
I0
(S'0x404a50'
p2156
S'0x404a5c'
p2157
tp2158
ssS'strtoimax@@GLIBC_2.2.5'
p2159
(dp2160
I0
(S'0x61a4e0'
p2161
S'0x61a4e3'
p2162
tp2163
ssS'stackoverflow_install_handler'
p2164
(dp2165
I0
(S'0x4037d0'
p2166
S'0x4037eb'
p2167
tp2168
sI1
(S'0x4037ec'
p2169
S'0x4037ff'
p2170
tp2171
sI2
(S'0x403800'
p2172
S'0x403838'
p2173
tp2174
sI3
(S'0x403839'
p2175
S'0x40383f'
p2176
tp2177
sI4
(S'0x403840'
p2178
S'0x403844'
p2179
tp2180
sI5
(S'0x403845'
p2181
S'0x403850'
p2182
tp2183
ssS'.calloc'
p2184
(dp2185
I0
(S'0x4017c0'
p2186
S'0x4017c5'
p2187
tp2188
ssS'version_etc'
p2189
(dp2190
I0
(S'0x404840'
p2191
S'0x40484a'
p2192
tp2193
sI1
(S'0x40484b'
p2194
S'0x404881'
p2195
tp2196
sI2
(S'0x404882'
p2197
S'0x4048c0'
p2198
tp2199
ssS'iswcntrl@@GLIBC_2.2.5'
p2200
(dp2201
I0
(S'0x61a500'
p2202
S'0x61a503'
p2203
tp2204
ssS'malloc'
p2205
(dp2206
I0
(S'0x61a6ac'
p2207
S'0x61a6af'
p2208
tp2209
ssS'iconv'
p2210
(dp2211
I0
(S'0x61a60c'
p2212
S'0x61a60f'
p2213
tp2214
ssS'strdup@@GLIBC_2.2.5'
p2215
(dp2216
I0
(S'0x61a5d8'
p2217
S'0x61a5db'
p2218
tp2219
ssS'write@@GLIBC_2.2.5'
p2220
(dp2221
I0
(S'0x61a50c'
p2222
S'0x61a50f'
p2223
tp2224
ssS'.strtoimax'
p2225
(dp2226
I0
(S'0x4015a0'
p2227
S'0x4015a5'
p2228
tp2229
ssS'count_newlines'
p2230
(dp2231
I0
(S'0x402b90'
p2232
S'0x402bb0'
p2233
tp2234
sI1
(S'0x402bb1'
p2235
S'0x402bbf'
p2236
tp2237
sI2
(S'0x402bc0'
p2238
S'0x402bd9'
p2239
tp2240
sI3
(S'0x402bda'
p2241
S'0x402be4'
p2242
tp2243
ssS'.fprintf'
p2244
(dp2245
I0
(S'0x4017f0'
p2246
S'0x4017f5'
p2247
tp2248
ssS'lseek@@GLIBC_2.2.5'
p2249
(dp2250
I0
(S'0x61a540'
p2251
S'0x61a543'
p2252
tp2253
ssS'abort'
p2254
(dp2255
I0
(S'0x61a5fc'
p2256
S'0x61a5ff'
p2257
tp2258
ssS'fprintf'
p2259
(dp2260
I0
(S'0x61a690'
p2261
S'0x61a693'
p2262
tp2263
ssS'read@@GLIBC_2.2.5'
p2264
(dp2265
I0
(S'0x61a558'
p2266
S'0x61a55b'
p2267
tp2268
ssS'rof_getchar'
p2269
(dp2270
I0
(S'0x403f30'
p2271
S'0x403f3c'
p2272
tp2273
sI1
(S'0x403f3d'
p2274
S'0x403f40'
p2275
tp2276
sI2
(S'0x403f41'
p2277
S'0x403f42'
p2278
tp2279
ssS'xinmalloc'
p2280
(dp2281
I0
(S'0x404a40'
p2282
S'0x404a4f'
p2283
tp2284
ssS'xzalloc'
p2285
(dp2286
I0
(S'0x404c70'
p2287
S'0x404c7c'
p2288
tp2289
ssS'c_isascii'
p2290
(dp2291
I0
(S'0x4069c0'
p2292
S'0x4069c9'
p2293
tp2294
ssS'c_isxdigit'
p2295
(dp2296
I0
(S'0x406a80'
p2297
S'0x406a87'
p2298
tp2299
sI1
(S'0x406a88'
p2300
S'0x406a99'
p2301
tp2302
sI2
(S'0x406a9a'
p2303
S'0x406a9c'
p2304
tp2305
ssS'c_isgraph'
p2306
(dp2307
I0
(S'0x406a00'
p2308
S'0x406a09'
p2309
tp2310
ssS'.lseek'
p2311
(dp2312
I0
(S'0x401720'
p2313
S'0x401725'
p2314
tp2315
ssS'strlen'
p2316
(dp2317
I0
(S'0x61a63c'
p2318
S'0x61a63f'
p2319
tp2320
ssS'.strdup'
p2321
(dp2322
I0
(S'0x401970'
p2323
S'0x401975'
p2324
tp2325
ssS'write'
p2326
(dp2327
I0
(S'0x61a624'
p2328
S'0x61a627'
p2329
tp2330
ssS'__libc_csu_init'
p2331
(dp2332
I0
(S'0x406f20'
p2333
S'0x406f55'
p2334
tp2335
sI1
(S'0x406f56'
p2336
S'0x406f5f'
p2337
tp2338
sI2
(S'0x406f60'
p2339
S'0x406f75'
p2340
tp2341
sI3
(S'0x406f76'
p2342
S'0x406f84'
p2343
tp2344
ssS'xcharalloc'
p2345
(dp2346
I0
(S'0x4049d0'
p2347
S'0x4049d7'
p2348
tp2349
ssS'setlocale_null_androidfix'
p2350
(dp2351
I0
(S'0x403600'
p2352
S'0x403609'
p2353
tp2354
ssS'.strlen'
p2355
(dp2356
I0
(S'0x4016b0'
p2357
S'0x4016b5'
p2358
tp2359
ssS'block_read'
p2360
(dp2361
I0
(S'0x405260'
p2362
S'0x405285'
p2363
tp2364
sI1
(S'0x405290'
p2365
S'0x405294'
p2366
tp2367
sI2
(S'0x405295'
p2368
S'0x4052b4'
p2369
tp2370
sI3
(S'0x4052b5'
p2371
S'0x4052bd'
p2372
tp2373
sI4
(S'0x4052be'
p2374
S'0x4052bf'
p2375
tp2376
sI5
(S'0x4052c0'
p2377
S'0x4052c1'
p2378
tp2379
sI6
(S'0x4052c2'
p2380
S'0x4052df'
p2381
tp2382
sI7
(S'0x4052e0'
p2383
S'0x4052e2'
p2384
tp2385
sI8
(S'0x4052e3'
p2386
S'0x4052f1'
p2387
tp2388
sI9
(S'0x4052f2'
p2389
S'0x4052f3'
p2390
tp2391
sI10
(S'0x4052f4'
p2392
S'0x4052fc'
p2393
tp2394
sI11
(S'0x4052fd'
p2395
S'0x4052ff'
p2396
tp2397
sI12
(S'0x405300'
p2398
S'0x405304'
p2399
tp2400
sI13
(S'0x405305'
p2401
S'0x405309'
p2402
tp2403
sI14
(S'0x40530a'
p2404
S'0x40530e'
p2405
tp2406
sI15
(S'0x40530f'
p2407
S'0x405315'
p2408
tp2409
sI16
(S'0x405316'
p2410
S'0x405327'
p2411
tp2412
ssS'free@@GLIBC_2.2.5'
p2413
(dp2414
I0
(S'0x61a4dc'
p2415
S'0x61a4df'
p2416
tp2417
ssS'xstr_iconv'
p2418
(dp2419
I0
(S'0x404e30'
p2420
S'0x404e3d'
p2421
tp2422
sI1
(S'0x404e3e'
p2423
S'0x404e47'
p2424
tp2425
sI2
(S'0x404e48'
p2426
S'0x404e4c'
p2427
tp2428
sI3
(S'0x404e4d'
p2429
S'0x404e51'
p2430
tp2431
ssS'reallocarray@@GLIBC_2.26'
p2432
(dp2433
I0
(S'0x61a504'
p2434
S'0x61a507'
p2435
tp2436
ssS'getpagesize@@GLIBC_2.2.5'
p2437
(dp2438
I0
(S'0x61a5c8'
p2439
S'0x61a5cb'
p2440
tp2441
ssS'__libc_csu_fini'
p2442
(dp2443
I0
(S'0x406f90'
p2444
S'0x406f91'
p2445
tp2446
ssS'mbslen'
p2447
(dp2448
I0
(S'0x406e80'
p2449
S'0x406e94'
p2450
tp2451
sI1
(S'0x406e95'
p2452
S'0x406ebd'
p2453
tp2454
sI2
(S'0x406ebe'
p2455
S'0x406ec4'
p2456
tp2457
sI3
(S'0x406ec5'
p2458
S'0x406ec8'
p2459
tp2460
sI4
(S'0x406ec9'
p2461
S'0x406ed5'
p2462
tp2463
sI5
(S'0x406ed6'
p2464
S'0x406edf'
p2465
tp2466
sI6
(S'0x406ee0'
p2467
S'0x406f05'
p2468
tp2469
sI7
(S'0x406f06'
p2470
S'0x406f09'
p2471
tp2472
sI8
(S'0x406f0a'
p2473
S'0x406f14'
p2474
tp2475
ssS'sprintf@@GLIBC_2.2.5'
p2476
(dp2477
I0
(S'0x61a5cc'
p2478
S'0x61a5cf'
p2479
tp2480
ssS'deregister_tm_clones'
p2481
(dp2482
I0
(S'0x401a10'
p2483
S'0x401a20'
p2484
tp2485
sI1
(S'0x401a21'
p2486
S'0x401a2a'
p2487
tp2488
sI2
(S'0x401a2b'
p2489
S'0x401a32'
p2490
tp2491
sI3
(S'0x401a38'
p2492
S'0x401a39'
p2493
tp2494
ssS'calloc'
p2495
(dp2496
I0
(S'0x61a684'
p2497
S'0x61a687'
p2498
tp2499
ssS'nl_langinfo'
p2500
(dp2501
I0
(S'0x61a6b0'
p2502
S'0x61a6b3'
p2503
tp2504
ssS'getopt_long'
p2505
(dp2506
I0
(S'0x61a644'
p2507
S'0x61a647'
p2508
tp2509
ssS'_exit'
p2510
(dp2511
I0
(S'0x61a608'
p2512
S'0x61a60b'
p2513
tp2514
ssS'.perror'
p2515
(dp2516
I0
(S'0x401920'
p2517
S'0x401925'
p2518
tp2519
ssS'c_iscntrl'
p2520
(dp2521
I0
(S'0x4069e0'
p2522
S'0x4069e6'
p2523
tp2524
sI1
(S'0x4069e7'
p2525
S'0x4069e7'
p2526
tp2527
sI2
(S'0x4069e8'
p2528
S'0x4069ec'
p2529
tp2530
sI3
(S'0x4069ed'
p2531
S'0x4069ef'
p2532
tp2533
ssS'__xstat@@GLIBC_2.2.5'
p2534
(dp2535
I0
(S'0x61a584'
p2536
S'0x61a587'
p2537
tp2538
ssS'strrchr@@GLIBC_2.2.5'
p2539
(dp2540
I0
(S'0x61a53c'
p2541
S'0x61a53f'
p2542
tp2543
ssS'printf@@GLIBC_2.2.5'
p2544
(dp2545
I0
(S'0x61a538'
p2546
S'0x61a53b'
p2547
tp2548
ssS'.strrchr'
p2549
(dp2550
I0
(S'0x401710'
p2551
S'0x401715'
p2552
tp2553
ssS'sigemptyset@@GLIBC_2.2.5'
p2554
(dp2555
I0
(S'0x61a57c'
p2556
S'0x61a57f'
p2557
tp2558
ssS'c_islower'
p2559
(dp2560
I0
(S'0x406a10'
p2561
S'0x406a19'
p2562
tp2563
ssS'memchr@@GLIBC_2.2.5'
p2564
(dp2565
I0
(S'0x61a554'
p2566
S'0x61a557'
p2567
tp2568
ssS'rawmemchr'
p2569
(dp2570
I0
(S'0x61a67c'
p2571
S'0x61a67f'
p2572
tp2573
ssS'signal@@GLIBC_2.2.5'
p2574
(dp2575
I0
(S'0x61a574'
p2576
S'0x61a577'
p2577
tp2578
ssS'c_isblank'
p2579
(dp2580
I0
(S'0x4069d0'
p2581
S'0x4069de'
p2582
tp2583
ssS'__xstat'
p2584
(dp2585
I0
(S'0x61a69c'
p2586
S'0x61a69f'
p2587
tp2588
ssS'setlocale_null'
p2589
(dp2590
I0
(S'0x4035f0'
p2591
S'0x4035f7'
p2592
tp2593
ssS'lseek'
p2594
(dp2595
I0
(S'0x61a658'
p2596
S'0x61a65b'
p2597
tp2598
ssS'.mbrtowc'
p2599
(dp2600
I0
(S'0x4016e0'
p2601
S'0x4016e5'
p2602
tp2603
ssS'.open'
p2604
(dp2605
I0
(S'0x401910'
p2606
S'0x401915'
p2607
tp2608
ssS'proper_name_utf8'
p2609
(dp2610
I0
(S'0x403350'
p2611
S'0x403392'
p2612
tp2613
sI1
(S'0x403393'
p2614
S'0x403406'
p2615
tp2616
sI2
(S'0x403407'
p2617
S'0x403418'
p2618
tp2619
sI3
(S'0x403419'
p2620
S'0x403420'
p2621
tp2622
sI4
(S'0x403421'
p2623
S'0x40342c'
p2624
tp2625
sI5
(S'0x40342d'
p2626
S'0x40343b'
p2627
tp2628
sI6
(S'0x40343c'
p2629
S'0x403440'
p2630
tp2631
sI7
(S'0x403441'
p2632
S'0x403448'
p2633
tp2634
sI8
(S'0x403449'
p2635
S'0x403468'
p2636
tp2637
sI9
(S'0x403469'
p2638
S'0x403477'
p2639
tp2640
sI10
(S'0x403478'
p2641
S'0x40347c'
p2642
tp2643
sI11
(S'0x40347d'
p2644
S'0x40348b'
p2645
tp2646
sI12
(S'0x40348c'
p2647
S'0x403490'
p2648
tp2649
sI13
(S'0x403491'
p2650
S'0x40349f'
p2651
tp2652
sI14
(S'0x4034a0'
p2653
S'0x4034a4'
p2654
tp2655
sI15
(S'0x4034a5'
p2656
S'0x4034ac'
p2657
tp2658
sI16
(S'0x4034ad'
p2659
S'0x4034ba'
p2660
tp2661
sI17
(S'0x4034bb'
p2662
S'0x4034c4'
p2663
tp2664
sI18
(S'0x4034c5'
p2665
S'0x4034c9'
p2666
tp2667
sI19
(S'0x4034ca'
p2668
S'0x4034ce'
p2669
tp2670
sI20
(S'0x4034cf'
p2671
S'0x4034d6'
p2672
tp2673
sI21
(S'0x4034d7'
p2674
S'0x4034e0'
p2675
tp2676
sI22
(S'0x4034e1'
p2677
S'0x4034e5'
p2678
tp2679
sI23
(S'0x4034e6'
p2680
S'0x4034ea'
p2681
tp2682
sI24
(S'0x4034eb'
p2683
S'0x4034ef'
p2684
tp2685
sI25
(S'0x4034f0'
p2686
S'0x40352c'
p2687
tp2688
sI26
(S'0x40352d'
p2689
S'0x403534'
p2690
tp2691
sI27
(S'0x403535'
p2692
S'0x40353e'
p2693
tp2694
sI28
(S'0x40353f'
p2695
S'0x403543'
p2696
tp2697
sI29
(S'0x403544'
p2698
S'0x403546'
p2699
tp2700
sI30
(S'0x403547'
p2701
S'0x403558'
p2702
tp2703
ssS'xrealloc'
p2704
(dp2705
I0
(S'0x4049e0'
p2706
S'0x4049f3'
p2707
tp2708
sI1
(S'0x4049f4'
p2709
S'0x4049f8'
p2710
tp2711
sI2
(S'0x4049f9'
p2712
S'0x4049fd'
p2713
tp2714
sI3
(S'0x4049fe'
p2715
S'0x404a05'
p2716
tp2717
sI4
(S'0x404a06'
p2718
S'0x404a0a'
p2719
tp2720
ssS'c_toupper'
p2721
(dp2722
I0
(S'0x406ab0'
p2723
S'0x406abc'
p2724
tp2725
ssS'.rawmemchr'
p2726
(dp2727
I0
(S'0x4017a0'
p2728
S'0x4017a5'
p2729
tp2730
ssS'rawmemchr@@GLIBC_2.2.5'
p2731
(dp2732
I0
(S'0x61a564'
p2733
S'0x61a567'
p2734
tp2735
ssS'overflow_handler'
p2736
(dp2737
I0
(S'0x402d10'
p2738
S'0x402d18'
p2739
tp2740
sI1
(S'0x402d19'
p2741
S'0x402d29'
p2742
tp2743
sI2
(S'0x402d2a'
p2744
S'0x402d2e'
p2745
tp2746
ssS'_exit@@GLIBC_2.2.5'
p2747
(dp2748
I0
(S'0x61a4f0'
p2749
S'0x61a4f3'
p2750
tp2751
ssS'.iconv_close'
p2752
(dp2753
I0
(S'0x4018d0'
p2754
S'0x4018d5'
p2755
tp2756
ssS'.memchr'
p2757
(dp2758
I0
(S'0x401770'
p2759
S'0x401775'
p2760
tp2761
ssS'setlocale_null_unlocked'
p2762
(dp2763
I0
(S'0x403570'
p2764
S'0x403586'
p2765
tp2766
sI1
(S'0x403587'
p2767
S'0x403596'
p2768
tp2769
sI2
(S'0x403597'
p2770
S'0x4035ad'
p2771
tp2772
sI3
(S'0x4035ae'
p2773
S'0x4035b8'
p2774
tp2775
sI4
(S'0x4035b9'
p2776
S'0x4035be'
p2777
tp2778
sI5
(S'0x4035bf'
p2779
S'0x4035c9'
p2780
tp2781
sI6
(S'0x4035ca'
p2782
S'0x4035de'
p2783
tp2784
sI7
(S'0x4035df'
p2785
S'0x4035ec'
p2786
tp2787
ssS'.__errno_location'
p2788
(dp2789
I0
(S'0x4015c0'
p2790
S'0x4015c5'
p2791
tp2792
ssS'xstrdup'
p2793
(dp2794
I0
(S'0x404d50'
p2795
S'0x404d66'
p2796
tp2797
ssS'set_program_name'
p2798
(dp2799
I0
(S'0x402f70'
p2800
S'0x402f78'
p2801
tp2802
sI1
(S'0x402f79'
p2803
S'0x402f9c'
p2804
tp2805
sI2
(S'0x402f9d'
p2806
S'0x402fb3'
p2807
tp2808
sI3
(S'0x402fb4'
p2809
S'0x402fc9'
p2810
tp2811
sI4
(S'0x402fca'
p2812
S'0x402fd4'
p2813
tp2814
sI5
(S'0x402fd5'
p2815
S'0x402fd7'
p2816
tp2817
sI6
(S'0x402fd8'
p2818
S'0x402fed'
p2819
tp2820
sI7
(S'0x402fee'
p2821
S'0x40300d'
p2822
tp2823
ssS'iswspace@@GLIBC_2.2.5'
p2824
(dp2825
I0
(S'0x61a5b4'
p2826
S'0x61a5b7'
p2827
tp2828
ssS'usage'
p2829
(dp2830
I0
(S'0x402320'
p2831
S'0x4023af'
p2832
tp2833
sI1
(S'0x4023b0'
p2834
S'0x4023d6'
p2835
tp2836
sI2
(S'0x4023d7'
p2837
S'0x402431'
p2838
tp2839
ssS'main'
p2840
(dp2841
I0
(S'0x401ac0'
p2842
S'0x401b1c'
p2843
tp2844
sI1
(S'0x401b1d'
p2845
S'0x401b3f'
p2846
tp2847
sI2
(S'0x401b40'
p2848
S'0x401b46'
p2849
tp2850
sI3
(S'0x401b47'
p2851
S'0x401b4f'
p2852
tp2853
sI4
(S'0x401b50'
p2854
S'0x401b5b'
p2855
tp2856
sI5
(S'0x401b5c'
p2857
S'0x401b83'
p2858
tp2859
sI6
(S'0x401b84'
p2860
S'0x401b96'
p2861
tp2862
sI7
(S'0x401b97'
p2863
S'0x401ba5'
p2864
tp2865
sI8
(S'0x401ba6'
p2866
S'0x401bc6'
p2867
tp2868
sI9
(S'0x401bc7'
p2869
S'0x401bd4'
p2870
tp2871
sI10
(S'0x401bd5'
p2872
S'0x401be0'
p2873
tp2874
sI11
(S'0x401be1'
p2875
S'0x401be9'
p2876
tp2877
sI12
(S'0x401bea'
p2878
S'0x401bf5'
p2879
tp2880
sI13
(S'0x401bf6'
p2881
S'0x401c09'
p2882
tp2883
sI14
(S'0x401c0a'
p2884
S'0x401c15'
p2885
tp2886
sI15
(S'0x401c16'
p2887
S'0x401c1e'
p2888
tp2889
sI16
(S'0x401c1f'
p2890
S'0x401c2d'
p2891
tp2892
sI17
(S'0x401c2e'
p2893
S'0x401c4a'
p2894
tp2895
sI18
(S'0x401c4b'
p2896
S'0x401c58'
p2897
tp2898
sI19
(S'0x401c59'
p2899
S'0x401c6c'
p2900
tp2901
sI20
(S'0x401c6d'
p2902
S'0x401c7f'
p2903
tp2904
sI21
(S'0x401c80'
p2905
S'0x401cae'
p2906
tp2907
sI22
(S'0x401caf'
p2908
S'0x401cb5'
p2909
tp2910
sI23
(S'0x401cb6'
p2911
S'0x401cbd'
p2912
tp2913
sI24
(S'0x401cbe'
p2914
S'0x401cc3'
p2915
tp2916
sI25
(S'0x401cd0'
p2917
S'0x401ce7'
p2918
tp2919
sI26
(S'0x401ce8'
p2920
S'0x401cec'
p2921
tp2922
sI27
(S'0x401ced'
p2923
S'0x401cfc'
p2924
tp2925
sI28
(S'0x401cfd'
p2926
S'0x401d17'
p2927
tp2928
sI29
(S'0x401d18'
p2929
S'0x401d30'
p2930
tp2931
sI30
(S'0x401d31'
p2932
S'0x401d48'
p2933
tp2934
sI31
(S'0x401d49'
p2935
S'0x401d4d'
p2936
tp2937
sI32
(S'0x401d50'
p2938
S'0x401d59'
p2939
tp2940
sI33
(S'0x401d5a'
p2941
S'0x401d73'
p2942
tp2943
sI34
(S'0x401d74'
p2944
S'0x401d8e'
p2945
tp2946
sI35
(S'0x401d8f'
p2947
S'0x401ddf'
p2948
tp2949
sI36
(S'0x401de0'
p2950
S'0x401de4'
p2951
tp2952
sI37
(S'0x401de5'
p2953
S'0x401de9'
p2954
tp2955
sI38
(S'0x401dea'
p2956
S'0x401df9'
p2957
tp2958
sI39
(S'0x401dfa'
p2959
S'0x401e13'
p2960
tp2961
sI40
(S'0x401e14'
p2962
S'0x401e23'
p2963
tp2964
sI41
(S'0x401e24'
p2965
S'0x401e33'
p2966
tp2967
sI42
(S'0x401e34'
p2968
S'0x401e48'
p2969
tp2970
sI43
(S'0x401e49'
p2971
S'0x401e57'
p2972
tp2973
sI44
(S'0x401e58'
p2974
S'0x401e6a'
p2975
tp2976
sI45
(S'0x401e6b'
p2977
S'0x401e76'
p2978
tp2979
sI46
(S'0x401e77'
p2980
S'0x401e88'
p2981
tp2982
sI47
(S'0x401e89'
p2983
S'0x401e98'
p2984
tp2985
sI48
(S'0x401e99'
p2986
S'0x401ea6'
p2987
tp2988
sI49
(S'0x401ea7'
p2989
S'0x401eb6'
p2990
tp2991
sI50
(S'0x401eb7'
p2992
S'0x401ec4'
p2993
tp2994
sI51
(S'0x401ec5'
p2995
S'0x401ec9'
p2996
tp2997
sI52
(S'0x401eca'
p2998
S'0x401ed7'
p2999
tp3000
sI53
(S'0x401ed8'
p3001
S'0x401ee7'
p3002
tp3003
sI54
(S'0x401ee8'
p3004
S'0x401ef7'
p3005
tp3006
sI55
(S'0x401ef8'
p3007
S'0x401f14'
p3008
tp3009
sI56
(S'0x401f15'
p3010
S'0x401f1d'
p3011
tp3012
sI57
(S'0x401f1e'
p3013
S'0x401f30'
p3014
tp3015
sI58
(S'0x401f31'
p3016
S'0x401f4a'
p3017
tp3018
sI59
(S'0x401f4b'
p3019
S'0x401f57'
p3020
tp3021
sI60
(S'0x401f58'
p3022
S'0x401f67'
p3023
tp3024
sI61
(S'0x401f68'
p3025
S'0x401f79'
p3026
tp3027
sI62
(S'0x401f7a'
p3028
S'0x401f83'
p3029
tp3030
sI63
(S'0x401f84'
p3031
S'0x401f95'
p3032
tp3033
sI64
(S'0x401f96'
p3034
S'0x401fc9'
p3035
tp3036
sI65
(S'0x401fca'
p3037
S'0x401fd9'
p3038
tp3039
sI66
(S'0x401fda'
p3040
S'0x401fe9'
p3041
tp3042
sI67
(S'0x401fea'
p3043
S'0x40204f'
p3044
tp3045
sI68
(S'0x402050'
p3046
S'0x40205e'
p3047
tp3048
sI69
(S'0x40205f'
p3049
S'0x402064'
p3050
tp3051
sI70
(S'0x402065'
p3052
S'0x402068'
p3053
tp3054
sI71
(S'0x402069'
p3055
S'0x402071'
p3056
tp3057
sI72
(S'0x402072'
p3058
S'0x402076'
p3059
tp3060
sI73
(S'0x402077'
p3061
S'0x40207d'
p3062
tp3063
sI74
(S'0x40207e'
p3064
S'0x40209d'
p3065
tp3066
sI75
(S'0x40209e'
p3067
S'0x4020ac'
p3068
tp3069
sI76
(S'0x4020ad'
p3070
S'0x4020bb'
p3071
tp3072
sI77
(S'0x4020bc'
p3073
S'0x4020ce'
p3074
tp3075
sI78
(S'0x4020cf'
p3076
S'0x4020dd'
p3077
tp3078
sI79
(S'0x4020de'
p3079
S'0x4020f1'
p3080
tp3081
sI80
(S'0x4020f2'
p3082
S'0x4020fd'
p3083
tp3084
sI81
(S'0x4020fe'
p3085
S'0x40210f'
p3086
tp3087
sI82
(S'0x402110'
p3088
S'0x402122'
p3089
tp3090
sI83
(S'0x402123'
p3091
S'0x402131'
p3092
tp3093
sI84
(S'0x402132'
p3094
S'0x40213a'
p3095
tp3096
sI85
(S'0x40213b'
p3097
S'0x402143'
p3098
tp3099
sI86
(S'0x402144'
p3100
S'0x402160'
p3101
tp3102
sI87
(S'0x402161'
p3103
S'0x40216a'
p3104
tp3105
sI88
(S'0x40216b'
p3106
S'0x40217b'
p3107
tp3108
sI89
(S'0x40217c'
p3109
S'0x40218d'
p3110
tp3111
sI90
(S'0x40218e'
p3112
S'0x40219d'
p3113
tp3114
sI91
(S'0x40219e'
p3115
S'0x4021a7'
p3116
tp3117
ssS'fwrite@@GLIBC_2.2.5'
p3118
(dp3119
I0
(S'0x61a5d4'
p3120
S'0x61a5d7'
p3121
tp3122
ssS'read'
p3123
(dp3124
I0
(S'0x61a670'
p3125
S'0x61a673'
p3126
tp3127
ssS'iswcntrl'
p3128
(dp3129
I0
(S'0x61a618'
p3130
S'0x61a61b'
p3131
tp3132
ssS'.abort'
p3133
(dp3134
I0
(S'0x4015b0'
p3135
S'0x4015b5'
p3136
tp3137
ssS'puts@@GLIBC_2.2.5'
p3138
(dp3139
I0
(S'0x61a4f8'
p3140
S'0x61a4fb'
p3141
tp3142
ssS'c_strcasecmp'
p3143
(dp3144
I0
(S'0x4053a0'
p3145
S'0x4053ab'
p3146
tp3147
sI1
(S'0x4053ac'
p3148
S'0x4053bf'
p3149
tp3150
sI2
(S'0x4053c0'
p3151
S'0x4053dd'
p3152
tp3153
sI3
(S'0x4053de'
p3154
S'0x4053e8'
p3155
tp3156
sI4
(S'0x4053e9'
p3157
S'0x4053ef'
p3158
tp3159
sI5
(S'0x4053f0'
p3160
S'0x4053f1'
p3161
tp3162
sI6
(S'0x4053f2'
p3163
S'0x4053fe'
p3164
tp3165
ssS'x2nrealloc'
p3166
(dp3167
I0
(S'0x404a60'
p3168
S'0x404a71'
p3169
tp3170
sI1
(S'0x404a72'
p3171
S'0x404a80'
p3172
tp3173
sI2
(S'0x404a81'
p3174
S'0x404a85'
p3175
tp3176
sI3
(S'0x404a86'
p3177
S'0x404a8a'
p3178
tp3179
sI4
(S'0x404a8b'
p3180
S'0x404aa3'
p3181
tp3182
sI5
(S'0x404aa4'
p3183
S'0x404ab9'
p3184
tp3185
ssS'memmove'
p3186
(dp3187
I0
(S'0x61a6d0'
p3188
S'0x61a6d3'
p3189
tp3190
ssS'__fxstat@@GLIBC_2.2.5'
p3191
(dp3192
I0
(S'0x61a59c'
p3193
S'0x61a59f'
p3194
tp3195
ssS'signal'
p3196
(dp3197
I0
(S'0x61a68c'
p3198
S'0x61a68f'
p3199
tp3200
ssS'remember_stack_top'
p3201
(dp3202
I0
(S'0x403860'
p3203
S'0x403871'
p3204
tp3205
sI1
(S'0x403872'
p3206
S'0x403881'
p3207
tp3208
sI2
(S'0x403882'
p3209
S'0x403886'
p3210
tp3211
ssS'.mbsinit'
p3212
(dp3213
I0
(S'0x401980'
p3214
S'0x401985'
p3215
tp3216
ssS'fputs_unlocked'
p3217
(dp3218
I0
(S'0x61a678'
p3219
S'0x61a67b'
p3220
tp3221
ssS'.iswcntrl'
p3222
(dp3223
I0
(S'0x401620'
p3224
S'0x401625'
p3225
tp3226
ssS'rpl_fcntl_DUPFD_CLOEXEC'
p3227
(dp3228
I0
(S'0x406c90'
p3229
S'0x406ca1'
p3230
tp3231
sI1
(S'0x406ca2'
p3232
S'0x406cb8'
p3233
tp3234
sI2
(S'0x406cb9'
p3235
S'0x406cc2'
p3236
tp3237
sI3
(S'0x406cc3'
p3238
S'0x406cd2'
p3239
tp3240
sI4
(S'0x406cd3'
p3241
S'0x406ce0'
p3242
tp3243
sI5
(S'0x406ce1'
p3244
S'0x406ce2'
p3245
tp3246
sI6
(S'0x406ce3'
p3247
S'0x406cec'
p3248
tp3249
sI7
(S'0x406ced'
p3250
S'0x406cf0'
p3251
tp3252
sI8
(S'0x406cf1'
p3253
S'0x406cf2'
p3254
tp3255
sI9
(S'0x406cf3'
p3256
S'0x406d02'
p3257
tp3258
sI10
(S'0x406d03'
p3259
S'0x406d0b'
p3260
tp3261
sI11
(S'0x406d0c'
p3262
S'0x406d1d'
p3263
tp3264
sI12
(S'0x406d1e'
p3265
S'0x406d35'
p3266
tp3267
sI13
(S'0x406d36'
p3268
S'0x406d50'
p3269
tp3270
sI14
(S'0x406d51'
p3271
S'0x406d57'
p3272
tp3273
ssS'.sprintf'
p3274
(dp3275
I0
(S'0x401940'
p3276
S'0x401945'
p3277
tp3278
ssS'getprogname'
p3279
(dp3280
I0
(S'0x402e60'
p3281
S'0x402e67'
p3282
tp3283
ssS'strcmp'
p3284
(dp3285
I0
(S'0x61a688'
p3286
S'0x61a68b'
p3287
tp3288
ssS'memchr'
p3289
(dp3290
I0
(S'0x61a66c'
p3291
S'0x61a66f'
p3292
tp3293
ssS'iconv_close@@GLIBC_2.2.5'
p3294
(dp3295
I0
(S'0x61a5b0'
p3296
S'0x61a5b3'
p3297
tp3298
ssS'c_isspace'
p3299
(dp3300
I0
(S'0x406a50'
p3301
S'0x406a57'
p3302
tp3303
sI1
(S'0x406a58'
p3304
S'0x406a63'
p3305
tp3306
sI2
(S'0x406a64'
p3307
S'0x406a66'
p3308
tp3309
ssS'strnlen1'
p3310
(dp3311
I0
(S'0x406940'
p3312
S'0x40696f'
p3313
tp3314
ssS'hard_locale'
p3315
(dp3316
I0
(S'0x402e70'
p3317
S'0x402e87'
p3318
tp3319
sI1
(S'0x402e88'
p3320
S'0x402e8e'
p3321
tp3322
sI2
(S'0x402e8f'
p3323
S'0x402ea4'
p3324
tp3325
sI3
(S'0x402ea5'
p3326
S'0x402eac'
p3327
tp3328
sI4
(S'0x402ead'
p3329
S'0x402eb6'
p3330
tp3331
ssS'segv_handler'
p3332
(dp3333
I0
(S'0x402d30'
p3334
S'0x402d33'
p3335
tp3336
sI1
(S'0x402d34'
p3337
S'0x402d36'
p3338
tp3339
sI2
(S'0x402d37'
p3340
S'0x402d41'
p3341
tp3342
ssS'raise@@GLIBC_2.2.5'
p3343
(dp3344
I0
(S'0x61a4d8'
p3345
S'0x61a4db'
p3346
tp3347
ssS'._exit'
p3348
(dp3349
I0
(S'0x4015e0'
p3350
S'0x4015e5'
p3351
tp3352
ssS'setlocale_null_r'
p3353
(dp3354
I0
(S'0x403560'
p3355
S'0x403567'
p3356
tp3357
ssS'fputs_unlocked@@GLIBC_2.2.5'
p3358
(dp3359
I0
(S'0x61a560'
p3360
S'0x61a563'
p3361
tp3362
ssS'__assert_fail@@GLIBC_2.2.5'
p3363
(dp3364
I0
(S'0x61a544'
p3365
S'0x61a547'
p3366
tp3367
ssS'xireallocarray'
p3368
(dp3369
I0
(S'0x404a20'
p3370
S'0x404a2f'
p3371
tp3372
ssS'.memset'
p3373
(dp3374
I0
(S'0x401740'
p3375
S'0x401745'
p3376
tp3377
ssS'open'
p3378
(dp3379
I0
(S'0x61a6d8'
p3380
S'0x61a6db'
p3381
tp3382
ssS'specify_ignore_initial'
p3383
(dp3384
I0
(S'0x4021b0'
p3385
S'0x4021d8'
p3386
tp3387
sI1
(S'0x4021d9'
p3388
S'0x4021dd'
p3389
tp3390
sI2
(S'0x4021de'
p3391
S'0x4021e5'
p3392
tp3393
sI3
(S'0x4021e6'
p3394
S'0x4021ee'
p3395
tp3396
sI4
(S'0x4021ef'
p3397
S'0x4021fb'
p3398
tp3399
sI5
(S'0x4021fc'
p3400
S'0x402203'
p3401
tp3402
sI6
(S'0x402204'
p3403
S'0x40220e'
p3404
tp3405
sI7
(S'0x40220f'
p3406
S'0x40221f'
p3407
tp3408
ssS'proper_name'
p3409
(dp3410
I0
(S'0x403010'
p3411
S'0x40302b'
p3412
tp3413
sI1
(S'0x40302c'
p3414
S'0x40303d'
p3415
tp3416
sI2
(S'0x40303e'
p3417
S'0x403042'
p3418
tp3419
sI3
(S'0x403043'
p3420
S'0x40307d'
p3421
tp3422
sI4
(S'0x40307e'
p3423
S'0x403086'
p3424
tp3425
ssS'sprintc'
p3426
(dp3427
I0
(S'0x402c00'
p3428
S'0x402c18'
p3429
tp3430
sI1
(S'0x402c19'
p3431
S'0x402c1d'
p3432
tp3433
sI2
(S'0x402c1e'
p3434
S'0x402c23'
p3435
tp3436
sI3
(S'0x402c24'
p3437
S'0x402c30'
p3438
tp3439
sI4
(S'0x402c31'
p3440
S'0x402c43'
p3441
tp3442
sI5
(S'0x402c44'
p3443
S'0x402c49'
p3444
tp3445
sI6
(S'0x402c4a'
p3446
S'0x402c53'
p3447
tp3448
sI7
(S'0x402c54'
p3449
S'0x402c61'
p3450
tp3451
ssS'exit'
p3452
(dp3453
I0
(S'0x61a6e8'
p3454
S'0x61a6eb'
p3455
tp3456
ssS'xnrealloc'
p3457
(dp3458
I0
(S'0x404950'
p3459
S'0x404957'
p3460
tp3461
ssS'iconv@@GLIBC_2.2.5'
p3462
(dp3463
I0
(S'0x61a4f4'
p3464
S'0x61a4f7'
p3465
tp3466
ssS'strrchr'
p3467
(dp3468
I0
(S'0x61a654'
p3469
S'0x61a657'
p3470
tp3471
ssS'freea'
p3472
(dp3473
I0
(S'0x406dd0'
p3474
S'0x406dd6'
p3475
tp3476
sI1
(S'0x406dd7'
p3477
S'0x406ddc'
p3478
tp3479
sI2
(S'0x406ddd'
p3480
S'0x406de8'
p3481
tp3482
sI3
(S'0x406de9'
p3483
S'0x406dea'
p3484
tp3485
sI4
(S'0x406deb'
p3486
S'0x406def'
p3487
tp3488
ssS'getpagesize'
p3489
(dp3490
I0
(S'0x61a6e0'
p3491
S'0x61a6e3'
p3492
tp3493
ssS'simple_is_near_this'
p3494
(dp3495
I0
(S'0x403a50'
p3496
S'0x403a68'
p3497
tp3498
ssS'.close'
p3499
(dp3500
I0
(S'0x401760'
p3501
S'0x401765'
p3502
tp3503
ssS'getopt_long@@GLIBC_2.2.5'
p3504
(dp3505
I0
(S'0x61a52c'
p3506
S'0x61a52f'
p3507
tp3508
ssS'c_tolower'
p3509
(dp3510
I0
(S'0x406aa0'
p3511
S'0x406aac'
p3512
tp3513
ssS'free'
p3514
(dp3515
I0
(S'0x61a5f4'
p3516
S'0x61a5f7'
p3517
tp3518
ssS'null_action'
p3519
(dp3520
I0
(S'0x402d00'
p3521
S'0x402d00'
p3522
tp3523
ssS'strlen@@GLIBC_2.2.5'
p3524
(dp3525
I0
(S'0x61a524'
p3526
S'0x61a527'
p3527
tp3528
ssS'memcpy@@GLIBC_2.14'
p3529
(dp3530
I0
(S'0x61a580'
p3531
S'0x61a583'
p3532
tp3533
ssS'.strnlen'
p3534
(dp3535
I0
(S'0x401750'
p3536
S'0x401755'
p3537
tp3538
ssS'__libc_start_main@@GLIBC_2.2.5'
p3539
(dp3540
I0
(S'0x61a55c'
p3541
S'0x61a55f'
p3542
tp3543
ssS'is_mapped'
p3544
(dp3545
I0
(S'0x404300'
p3546
S'0x404318'
p3547
tp3548
ssS'iconv_open@@GLIBC_2.2.5'
p3549
(dp3550
I0
(S'0x61a5ec'
p3551
S'0x61a5ef'
p3552
tp3553
ssS'xizalloc'
p3554
(dp3555
I0
(S'0x404c90'
p3556
S'0x404c9c'
p3557
tp3558
ssS'version_etc_va'
p3559
(dp3560
I0
(S'0x4047d0'
p3561
S'0x4047df'
p3562
tp3563
sI1
(S'0x4047e0'
p3564
S'0x4047e8'
p3565
tp3566
sI2
(S'0x4047e9'
p3567
S'0x4047f8'
p3568
tp3569
sI3
(S'0x404800'
p3570
S'0x40480b'
p3571
tp3572
sI4
(S'0x40480c'
p3573
S'0x404817'
p3574
tp3575
sI5
(S'0x404818'
p3576
S'0x404821'
p3577
tp3578
sI6
(S'0x404822'
p3579
S'0x404827'
p3580
tp3581
sI7
(S'0x404828'
p3582
S'0x404834'
p3583
tp3584
ssS'.strchr'
p3585
(dp3586
I0
(S'0x4016f0'
p3587
S'0x4016f5'
p3588
tp3589
ssS'.bindtextdomain'
p3590
(dp3591
I0
(S'0x401680'
p3592
S'0x401685'
p3593
tp3594
ssS'_gl_alloc_nomem'
p3595
(dp3596
I0
(S'0x405420'
p3597
S'0x40542f'
p3598
tp3599
ssS'setlocale@@GLIBC_2.2.5'
p3600
(dp3601
I0
(S'0x61a5ac'
p3602
S'0x61a5af'
p3603
tp3604
ssS'mapped_range_start'
p3605
(dp3606
I0
(S'0x403ff0'
p3607
S'0x40400d'
p3608
tp3609
sI1
(S'0x404010'
p3610
S'0x404017'
p3611
tp3612
sI2
(S'0x404018'
p3613
S'0x40401b'
p3614
tp3615
sI3
(S'0x40401c'
p3616
S'0x404020'
p3617
tp3618
sI4
(S'0x404021'
p3619
S'0x40404c'
p3620
tp3621
sI5
(S'0x40404d'
p3622
S'0x40405e'
p3623
tp3624
sI6
(S'0x404060'
p3625
S'0x404066'
p3626
tp3627
sI7
(S'0x404067'
p3628
S'0x40406e'
p3629
tp3630
sI8
(S'0x40406f'
p3631
S'0x404073'
p3632
tp3633
sI9
(S'0x404080'
p3634
S'0x4040c5'
p3635
tp3636
sI10
(S'0x4040c6'
p3637
S'0x4040cb'
p3638
tp3639
sI11
(S'0x4040cc'
p3640
S'0x4040da'
p3641
tp3642
sI12
(S'0x4040db'
p3643
S'0x4040ee'
p3644
tp3645
ssS'iconv_close'
p3646
(dp3647
I0
(S'0x61a6c8'
p3648
S'0x61a6cb'
p3649
tp3650
ssS'.iswspace'
p3651
(dp3652
I0
(S'0x4018e0'
p3653
S'0x4018e5'
p3654
tp3655
ssS'setlocale'
p3656
(dp3657
I0
(S'0x61a6c4'
p3658
S'0x61a6c7'
p3659
tp3660
ssS'.iconv_open'
p3661
(dp3662
I0
(S'0x4019c0'
p3663
S'0x4019c5'
p3664
tp3665
ssS'.raise'
p3666
(dp3667
I0
(S'0x401580'
p3668
S'0x401585'
p3669
tp3670
ssS'fclose@@GLIBC_2.2.5'
p3671
(dp3672
I0
(S'0x61a514'
p3673
S'0x61a517'
p3674
tp3675
ssS'irealloc'
p3676
(dp3677
I0
(S'0x405440'
p3678
S'0x405452'
p3679
tp3680
ssS'__libc_start_main'
p3681
(dp3682
I0
(S'0x61a674'
p3683
S'0x61a677'
p3684
tp3685
ssS'.malloc'
p3686
(dp3687
I0
(S'0x401860'
p3688
S'0x401865'
p3689
tp3690
ssS'sigemptyset'
p3691
(dp3692
I0
(S'0x61a694'
p3693
S'0x61a697'
p3694
tp3695
ssS'mincore_is_near_this'
p3696
(dp3697
I0
(S'0x404200'
p3698
S'0x404213'
p3699
tp3700
sI1
(S'0x404214'
p3701
S'0x40421c'
p3702
tp3703
sI2
(S'0x40421d'
p3704
S'0x40421e'
p3705
tp3706
ssS'strcmp@@GLIBC_2.2.5'
p3707
(dp3708
I0
(S'0x61a570'
p3709
S'0x61a573'
p3710
tp3711
ssS'.strncmp'
p3712
(dp3713
I0
(S'0x4015d0'
p3714
S'0x4015d5'
p3715
tp3716
ssS'mbiter_multi_next'
p3717
(dp3718
I0
(S'0x4054d0'
p3719
S'0x4054de'
p3720
tp3721
sI1
(S'0x4054df'
p3722
S'0x4054e7'
p3723
tp3724
sI2
(S'0x4054e8'
p3725
S'0x4054f7'
p3726
tp3727
sI3
(S'0x4054f8'
p3728
S'0x405512'
p3729
tp3730
sI4
(S'0x405513'
p3731
S'0x405523'
p3732
tp3733
sI5
(S'0x405524'
p3734
S'0x405527'
p3735
tp3736
sI6
(S'0x405528'
p3737
S'0x40554e'
p3738
tp3739
sI7
(S'0x40554f'
p3740
S'0x405553'
p3741
tp3742
sI8
(S'0x405554'
p3743
S'0x405559'
p3744
tp3745
sI9
(S'0x40555a'
p3746
S'0x405563'
p3747
tp3748
sI10
(S'0x405564'
p3749
S'0x405574'
p3750
tp3751
sI11
(S'0x405575'
p3752
S'0x40557a'
p3753
tp3754
sI12
(S'0x40557b'
p3755
S'0x40558a'
p3756
tp3757
sI13
(S'0x40558b'
p3758
S'0x405590'
p3759
tp3760
sI14
(S'0x405591'
p3761
S'0x40559b'
p3762
tp3763
sI15
(S'0x40559c'
p3764
S'0x40559f'
p3765
tp3766
sI16
(S'0x4055a0'
p3767
S'0x4055a3'
p3768
tp3769
sI17
(S'0x4055a4'
p3770
S'0x4055a9'
p3771
tp3772
sI18
(S'0x4055aa'
p3773
S'0x4055c2'
p3774
tp3775
sI19
(S'0x4055c3'
p3776
S'0x4055db'
p3777
tp3778
sI20
(S'0x4055dc'
p3779
S'0x4055f4'
p3780
tp3781
ssS'abort@@GLIBC_2.2.5'
p3782
(dp3783
I0
(S'0x61a4e4'
p3784
S'0x61a4e7'
p3785
tp3786
ssS'__ctype_b_loc@@GLIBC_2.3'
p3787
(dp3788
I0
(S'0x61a5e8'
p3789
S'0x61a5eb'
p3790
tp3791
ssS'dcgettext'
p3792
(dp3793
I0
(S'0x61a634'
p3794
S'0x61a637'
p3795
tp3796
ssS'.iswalnum'
p3797
(dp3798
I0
(S'0x401850'
p3799
S'0x401855'
p3800
tp3801
ssS'.init_proc'
p3802
(dp3803
I0
(S'0x401558'
p3804
S'0x401567'
p3805
tp3806
sI1
(S'0x401568'
p3807
S'0x401569'
p3808
tp3809
sI2
(S'0x40156a'
p3810
S'0x40156e'
p3811
tp3812
ssS'iswalnum@@GLIBC_2.2.5'
p3813
(dp3814
I0
(S'0x61a590'
p3815
S'0x61a593'
p3816
tp3817
ssS'hard_locale_LC_MESSAGES'
p3818
(dp3819
I0
(S'0x402bf0'
p3820
S'0x402bfc'
p3821
tp3822
ssS'sigaction@@GLIBC_2.2.5'
p3823
(dp3824
I0
(S'0x61a4fc'
p3825
S'0x61a4ff'
p3826
tp3827
ssS'is_unmapped'
p3828
(dp3829
I0
(S'0x404220'
p3830
S'0x40426f'
p3831
tp3832
sI1
(S'0x404270'
p3833
S'0x40427a'
p3834
tp3835
sI2
(S'0x40427b'
p3836
S'0x40427c'
p3837
tp3838
sI3
(S'0x404280'
p3839
S'0x404284'
p3840
tp3841
sI4
(S'0x404285'
p3842
S'0x404288'
p3843
tp3844
sI5
(S'0x404289'
p3845
S'0x404290'
p3846
tp3847
sI6
(S'0x404291'
p3848
S'0x404297'
p3849
tp3850
sI7
(S'0x404298'
p3851
S'0x4042bf'
p3852
tp3853
sI8
(S'0x4042c0'
p3854
S'0x4042cb'
p3855
tp3856
sI9
(S'0x4042cc'
p3857
S'0x4042d6'
p3858
tp3859
sI10
(S'0x4042d7'
p3860
S'0x4042da'
p3861
tp3862
sI11
(S'0x4042db'
p3863
S'0x4042e1'
p3864
tp3865
sI12
(S'0x4042e2'
p3866
S'0x4042e6'
p3867
tp3868
sI13
(S'0x4042e7'
p3869
S'0x4042ed'
p3870
tp3871
sI14
(S'0x4042ee'
p3872
S'0x4042ef'
p3873
tp3874
sI15
(S'0x4042f0'
p3875
S'0x4042fe'
p3876
tp3877
ssS'.fcntl'
p3878
(dp3879
I0
(S'0x401640'
p3880
S'0x401645'
p3881
tp3882
ssS'emit_bug_reporting_address'
p3883
(dp3884
I0
(S'0x4048d0'
p3885
S'0x404948'
p3886
tp3887
ssS'buffer_lcm'
p3888
(dp3889
I0
(S'0x405330'
p3890
S'0x405334'
p3891
tp3892
sI1
(S'0x405335'
p3893
S'0x405339'
p3894
tp3895
sI2
(S'0x40533a'
p3896
S'0x40534f'
p3897
tp3898
sI3
(S'0x405350'
p3899
S'0x40535f'
p3900
tp3901
sI4
(S'0x405360'
p3902
S'0x405372'
p3903
tp3904
sI5
(S'0x405373'
p3905
S'0x40537b'
p3906
tp3907
sI6
(S'0x40537c'
p3908
S'0x40537e'
p3909
tp3910
sI7
(S'0x40537f'
p3911
S'0x405382'
p3912
tp3913
sI8
(S'0x405383'
p3914
S'0x405392'
p3915
tp3916
ssS'xstr_cd_iconv'
p3917
(dp3918
I0
(S'0x404e00'
p3919
S'0x404e0d'
p3920
tp3921
sI1
(S'0x404e0e'
p3922
S'0x404e17'
p3923
tp3924
sI2
(S'0x404e18'
p3925
S'0x404e1c'
p3926
tp3927
sI3
(S'0x404e1d'
p3928
S'0x404e21'
p3929
tp3930
ssS'__ctype_get_mb_cur_max@@GLIBC_2.2.5'
p3931
(dp3932
I0
(S'0x61a520'
p3933
S'0x61a523'
p3934
tp3935
ssS'calloc@@GLIBC_2.2.5'
p3936
(dp3937
I0
(S'0x61a56c'
p3938
S'0x61a56f'
p3939
tp3940
ssS'memmove@@GLIBC_2.2.5'
p3941
(dp3942
I0
(S'0x61a5b8'
p3943
S'0x61a5bb'
p3944
tp3945
ssS'ireallocarray'
p3946
(dp3947
I0
(S'0x405470'
p3948
S'0x405492'
p3949
tp3950
ssS'check_stdout'
p3951
(dp3952
I0
(S'0x4022b0'
p3953
S'0x4022c0'
p3954
tp3955
sI1
(S'0x4022c1'
p3956
S'0x4022d0'
p3957
tp3958
sI2
(S'0x4022d1'
p3959
S'0x4022d2'
p3960
tp3961
sI3
(S'0x4022d3'
p3962
S'0x4022f1'
p3963
tp3964
sI4
(S'0x4022f2'
p3965
S'0x402315'
p3966
tp3967
sI5
(S'0x402316'
p3968
S'0x40231f'
p3969
tp3970
ssS'stdopen'
p3971
(dp3972
I0
(S'0x4062e0'
p3973
S'0x4062e7'
p3974
tp3975
sI1
(S'0x4062e8'
p3976
S'0x4062ef'
p3977
tp3978
sI2
(S'0x4062f0'
p3979
S'0x4062f1'
p3980
tp3981
sI3
(S'0x4062f2'
p3982
S'0x4062f5'
p3983
tp3984
sI4
(S'0x4062f6'
p3985
S'0x4062fd'
p3986
tp3987
sI5
(S'0x4062fe'
p3988
S'0x40630f'
p3989
tp3990
sI6
(S'0x406310'
p3991
S'0x40631e'
p3992
tp3993
sI7
(S'0x40631f'
p3994
S'0x406322'
p3995
tp3996
sI8
(S'0x406323'
p3997
S'0x406326'
p3998
tp3999
sI9
(S'0x406327'
p4000
S'0x406328'
p4001
tp4002
sI10
(S'0x406329'
p4003
S'0x40633a'
p4004
tp4005
sI11
(S'0x40633b'
p4006
S'0x40634c'
p4007
tp4008
sI12
(S'0x40634d'
p4009
S'0x406353'
p4010
tp4011
sI13
(S'0x406354'
p4012
S'0x40635f'
p4013
tp4014
sI14
(S'0x406360'
p4015
S'0x406362'
p4016
tp4017
sI15
(S'0x406363'
p4018
S'0x40636a'
p4019
tp4020
ssS'.dcgettext'
p4021
(dp4022
I0
(S'0x401690'
p4023
S'0x401695'
p4024
tp4025
ssS'knuth_morris_pratt_multibyte'
p4026
(dp4027
I0
(S'0x405c60'
p4028
S'0x405c96'
p4029
tp4030
sI1
(S'0x405c97'
p4031
S'0x405c9e'
p4032
tp4033
sI2
(S'0x405c9f'
p4034
S'0x405ca3'
p4035
tp4036
sI3
(S'0x405ca4'
p4037
S'0x405cb4'
p4038
tp4039
sI4
(S'0x405cb5'
p4040
S'0x405ce0'
p4041
tp4042
sI5
(S'0x405ce1'
p4043
S'0x405d1a'
p4044
tp4045
sI6
(S'0x405d1b'
p4046
S'0x405d20'
p4047
tp4048
sI7
(S'0x405d21'
p4049
S'0x405d2f'
p4050
tp4051
sI8
(S'0x405d30'
p4052
S'0x405d5b'
p4053
tp4054
sI9
(S'0x405d5c'
p4055
S'0x405d5f'
p4056
tp4057
sI10
(S'0x405d60'
p4058
S'0x405d82'
p4059
tp4060
sI11
(S'0x405d83'
p4061
S'0x405d8c'
p4062
tp4063
sI12
(S'0x405d90'
p4064
S'0x405d94'
p4065
tp4066
sI13
(S'0x405d95'
p4067
S'0x405da6'
p4068
tp4069
sI14
(S'0x405da7'
p4070
S'0x405dc8'
p4071
tp4072
sI15
(S'0x405dc9'
p4073
S'0x405dcf'
p4074
tp4075
sI16
(S'0x405dd0'
p4076
S'0x405ddf'
p4077
tp4078
sI17
(S'0x405de0'
p4079
S'0x405dea'
p4080
tp4081
sI18
(S'0x405deb'
p4082
S'0x405dec'
p4083
tp4084
sI19
(S'0x405df0'
p4085
S'0x405e02'
p4086
tp4087
sI20
(S'0x405e03'
p4088
S'0x405e16'
p4089
tp4090
sI21
(S'0x405e17'
p4091
S'0x405e1f'
p4092
tp4093
sI22
(S'0x405e20'
p4094
S'0x405e28'
p4095
tp4096
sI23
(S'0x405e29'
p4097
S'0x405e2a'
p4098
tp4099
sI24
(S'0x405e30'
p4100
S'0x405e3e'
p4101
tp4102
sI25
(S'0x405e3f'
p4103
S'0x405ea2'
p4104
tp4105
sI26
(S'0x405ea3'
p4106
S'0x405eaa'
p4107
tp4108
sI27
(S'0x405eab'
p4109
S'0x405ebf'
p4110
tp4111
sI28
(S'0x405ec0'
p4112
S'0x405ecf'
p4113
tp4114
sI29
(S'0x405ed0'
p4115
S'0x405ed4'
p4116
tp4117
sI30
(S'0x405ed5'
p4118
S'0x405edb'
p4119
tp4120
sI31
(S'0x405edc'
p4121
S'0x405edd'
p4122
tp4123
sI32
(S'0x405ee0'
p4124
S'0x405eed'
p4125
tp4126
sI33
(S'0x405eee'
p4127
S'0x405f01'
p4128
tp4129
sI34
(S'0x405f02'
p4130
S'0x405f06'
p4131
tp4132
sI35
(S'0x405f07'
p4133
S'0x405f16'
p4134
tp4135
sI36
(S'0x405f17'
p4136
S'0x405f1b'
p4137
tp4138
sI37
(S'0x405f20'
p4139
S'0x405f35'
p4140
tp4141
sI38
(S'0x405f36'
p4142
S'0x405f43'
p4143
tp4144
sI39
(S'0x405f44'
p4145
S'0x405f49'
p4146
tp4147
sI40
(S'0x405f4a'
p4148
S'0x405f4e'
p4149
tp4150
sI41
(S'0x405f50'
p4151
S'0x405f6e'
p4152
tp4153
sI42
(S'0x405f6f'
p4154
S'0x405f73'
p4155
tp4156
sI43
(S'0x405f80'
p4157
S'0x405f8d'
p4158
tp4159
sI44
(S'0x405f8e'
p4160
S'0x405f97'
p4161
tp4162
sI45
(S'0x405f98'
p4163
S'0x405fb8'
p4164
tp4165
sI46
(S'0x405fb9'
p4166
S'0x405fd6'
p4167
tp4168
sI47
(S'0x405fd7'
p4169
S'0x405fde'
p4170
tp4171
sI48
(S'0x405fdf'
p4172
S'0x405fe0'
p4173
tp4174
sI49
(S'0x405fe1'
p4175
S'0x405ff1'
p4176
tp4177
sI50
(S'0x405ff2'
p4178
S'0x405ff5'
p4179
tp4180
sI51
(S'0x405ff6'
p4181
S'0x406000'
p4182
tp4183
sI52
(S'0x406001'
p4184
S'0x40600a'
p4185
tp4186
sI53
(S'0x40600b'
p4187
S'0x406019'
p4188
tp4189
sI54
(S'0x40601a'
p4190
S'0x40601e'
p4191
tp4192
ssS'malloc@@GLIBC_2.2.5'
p4193
(dp4194
I0
(S'0x61a594'
p4195
S'0x61a597'
p4196
tp4197
ssS'.memmove'
p4198
(dp4199
I0
(S'0x4018f0'
p4200
S'0x4018f5'
p4201
tp4202
ssS'specify_comparison_type'
p4203
(dp4204
I0
(S'0x402220'
p4205
S'0x40222a'
p4206
tp4207
sI1
(S'0x40222b'
p4208
S'0x40222e'
p4209
tp4210
sI2
(S'0x40222f'
p4211
S'0x402236'
p4212
tp4213
sI3
(S'0x402237'
p4214
S'0x40224f'
p4215
tp4216
ssS'imalloc'
p4217
(dp4218
I0
(S'0x405430'
p4219
S'0x405437'
p4220
tp4221
ssS'mbsstr'
p4222
(dp4223
I0
(S'0x4056b0'
p4224
S'0x4056d9'
p4225
tp4226
sI1
(S'0x4056da'
p4227
S'0x405714'
p4228
tp4229
sI2
(S'0x405715'
p4230
S'0x405722'
p4231
tp4232
sI3
(S'0x405723'
p4233
S'0x405777'
p4234
tp4235
sI4
(S'0x405778'
p4236
S'0x405782'
p4237
tp4238
sI5
(S'0x405783'
p4239
S'0x405789'
p4240
tp4241
sI6
(S'0x40578a'
p4242
S'0x405790'
p4243
tp4244
sI7
(S'0x405791'
p4245
S'0x405798'
p4246
tp4247
sI8
(S'0x405799'
p4248
S'0x4057a2'
p4249
tp4250
sI9
(S'0x4057a3'
p4251
S'0x4057bb'
p4252
tp4253
sI10
(S'0x4057bc'
p4254
S'0x4057c3'
p4255
tp4256
sI11
(S'0x4057c4'
p4257
S'0x4057ce'
p4258
tp4259
sI12
(S'0x4057cf'
p4260
S'0x4057d6'
p4261
tp4262
sI13
(S'0x4057d7'
p4263
S'0x4057ec'
p4264
tp4265
sI14
(S'0x4057ed'
p4266
S'0x4057f6'
p4267
tp4268
sI15
(S'0x4057f7'
p4269
S'0x405801'
p4270
tp4271
sI16
(S'0x405802'
p4272
S'0x405815'
p4273
tp4274
sI17
(S'0x405816'
p4275
S'0x40581a'
p4276
tp4277
sI18
(S'0x40581b'
p4278
S'0x405852'
p4279
tp4280
sI19
(S'0x405853'
p4281
S'0x405854'
p4282
tp4283
sI20
(S'0x405855'
p4284
S'0x40585b'
p4285
tp4286
sI21
(S'0x40585c'
p4287
S'0x4058a6'
p4288
tp4289
sI22
(S'0x4058a7'
p4290
S'0x4058bf'
p4291
tp4292
sI23
(S'0x4058c0'
p4293
S'0x4058cd'
p4294
tp4295
sI24
(S'0x4058ce'
p4296
S'0x4058df'
p4297
tp4298
sI25
(S'0x4058e0'
p4299
S'0x4058eb'
p4300
tp4301
sI26
(S'0x4058ec'
p4302
S'0x4058f4'
p4303
tp4304
sI27
(S'0x4058f5'
p4305
S'0x405900'
p4306
tp4307
sI28
(S'0x405901'
p4308
S'0x40590d'
p4309
tp4310
sI29
(S'0x40590e'
p4311
S'0x405917'
p4312
tp4313
sI30
(S'0x405918'
p4314
S'0x40591a'
p4315
tp4316
sI31
(S'0x40591b'
p4317
S'0x40592f'
p4318
tp4319
sI32
(S'0x405930'
p4320
S'0x40594f'
p4321
tp4322
sI33
(S'0x405950'
p4323
S'0x405959'
p4324
tp4325
sI34
(S'0x40595a'
p4326
S'0x405967'
p4327
tp4328
sI35
(S'0x405968'
p4329
S'0x405974'
p4330
tp4331
sI36
(S'0x405975'
p4332
S'0x405979'
p4333
tp4334
sI37
(S'0x40597a'
p4335
S'0x40597e'
p4336
tp4337
sI38
(S'0x405980'
p4338
S'0x40599c'
p4339
tp4340
sI39
(S'0x40599d'
p4341
S'0x4059ae'
p4342
tp4343
sI40
(S'0x4059af'
p4344
S'0x4059b8'
p4345
tp4346
sI41
(S'0x4059b9'
p4347
S'0x4059ca'
p4348
tp4349
sI42
(S'0x4059cb'
p4350
S'0x4059d8'
p4351
tp4352
sI43
(S'0x4059d9'
p4353
S'0x405a0a'
p4354
tp4355
sI44
(S'0x405a0b'
p4356
S'0x405a13'
p4357
tp4358
sI45
(S'0x405a20'
p4359
S'0x405a23'
p4360
tp4361
sI46
(S'0x405a24'
p4362
S'0x405a25'
p4363
tp4364
sI47
(S'0x405a26'
p4365
S'0x405a2c'
p4366
tp4367
sI48
(S'0x405a2d'
p4368
S'0x405a31'
p4369
tp4370
sI49
(S'0x405a32'
p4371
S'0x405a3f'
p4372
tp4373
sI50
(S'0x405a40'
p4374
S'0x405a4a'
p4375
tp4376
sI51
(S'0x405a4b'
p4377
S'0x405a54'
p4378
tp4379
sI52
(S'0x405a55'
p4380
S'0x405a61'
p4381
tp4382
sI53
(S'0x405a62'
p4383
S'0x405a66'
p4384
tp4385
sI54
(S'0x405a70'
p4386
S'0x405a82'
p4387
tp4388
sI55
(S'0x405a83'
p4389
S'0x405aa0'
p4390
tp4391
sI56
(S'0x405aa1'
p4392
S'0x405b18'
p4393
tp4394
sI57
(S'0x405b19'
p4395
S'0x405b1f'
p4396
tp4397
sI58
(S'0x405b20'
p4398
S'0x405b24'
p4399
tp4400
sI59
(S'0x405b30'
p4401
S'0x405b39'
p4402
tp4403
sI60
(S'0x405b3a'
p4404
S'0x405b55'
p4405
tp4406
sI61
(S'0x405b56'
p4407
S'0x405b75'
p4408
tp4409
sI62
(S'0x405b76'
p4410
S'0x405b7c'
p4411
tp4412
sI63
(S'0x405b7d'
p4413
S'0x405b9c'
p4414
tp4415
sI64
(S'0x405b9d'
p4416
S'0x405ba4'
p4417
tp4418
sI65
(S'0x405ba5'
p4419
S'0x405bab'
p4420
tp4421
sI66
(S'0x405bac'
p4422
S'0x405baf'
p4423
tp4424
sI67
(S'0x405bb0'
p4425
S'0x405bbe'
p4426
tp4427
sI68
(S'0x405bbf'
p4428
S'0x405bd8'
p4429
tp4430
sI69
(S'0x405bd9'
p4431
S'0x405be2'
p4432
tp4433
sI70
(S'0x405be3'
p4434
S'0x405be7'
p4435
tp4436
sI71
(S'0x405bf0'
p4437
S'0x405c03'
p4438
tp4439
sI72
(S'0x405c04'
p4440
S'0x405c2b'
p4441
tp4442
sI73
(S'0x405c2c'
p4443
S'0x405c36'
p4444
tp4445
sI74
(S'0x405c37'
p4446
S'0x405c3b'
p4447
tp4448
sI75
(S'0x405c3c'
p4449
S'0x405c48'
p4450
tp4451
sI76
(S'0x405c49'
p4452
S'0x405c4d'
p4453
tp4454
sI77
(S'0x405c4e'
p4455
S'0x405c52'
p4456
tp4457
ssS'c_isalnum'
p4458
(dp4459
I0
(S'0x406970'
p4460
S'0x406979'
p4461
tp4462
sI1
(S'0x40697a'
p4463
S'0x406989'
p4464
tp4465
sI2
(S'0x40698a'
p4466
S'0x40698a'
p4467
tp4468
sI3
(S'0x40698b'
p4469
S'0x406992'
p4470
tp4471
sI4
(S'0x406993'
p4472
S'0x406995'
p4473
tp4474
ssS'.fclose'
p4475
(dp4476
I0
(S'0x401670'
p4477
S'0x401675'
p4478
tp4479
ssS'__assert_fail'
p4480
(dp4481
I0
(S'0x61a65c'
p4482
S'0x61a65f'
p4483
tp4484
ssS'mbrtowc'
p4485
(dp4486
I0
(S'0x61a648'
p4487
S'0x61a64b'
p4488
tp4489
ssS'mbsinit@@GLIBC_2.2.5'
p4490
(dp4491
I0
(S'0x61a5dc'
p4492
S'0x61a5df'
p4493
tp4494
ssS'rpl_free'
p4495
(dp4496
I0
(S'0x405400'
p4497
S'0x40541f'
p4498
tp4499
ssS'icalloc'
p4500
(dp4501
I0
(S'0x405460'
p4502
S'0x405467'
p4503
tp4504
ssS'.puts'
p4505
(dp4506
I0
(S'0x401600'
p4507
S'0x401605'
p4508
tp4509
ssS'bindtextdomain'
p4510
(dp4511
I0
(S'0x61a630'
p4512
S'0x61a633'
p4513
tp4514
ssS'_dl_relocate_static_pie'
p4515
(dp4516
I0
(S'0x401a00'
p4517
S'0x401a01'
p4518
tp4519
ssS'strncmp@@GLIBC_2.2.5'
p4520
(dp4521
I0
(S'0x61a4ec'
p4522
S'0x61a4ef'
p4523
tp4524
ssS'c_isupper'
p4525
(dp4526
I0
(S'0x406a70'
p4527
S'0x406a79'
p4528
tp4529
ssS'sigaddset@@GLIBC_2.2.5'
p4530
(dp4531
I0
(S'0x61a5e4'
p4532
S'0x61a5e7'
p4533
tp4534
ssS'.__ctype_b_loc'
p4535
(dp4536
I0
(S'0x4019b0'
p4537
S'0x4019b5'
p4538
tp4539
ssS'.error'
p4540
(dp4541
I0
(S'0x401900'
p4542
S'0x401905'
p4543
tp4544
ssS'textdomain'
p4545
(dp4546
I0
(S'0x61a628'
p4547
S'0x61a62b'
p4548
tp4549
ssS'reallocarray'
p4550
(dp4551
I0
(S'0x61a61c'
p4552
S'0x61a61f'
p4553
tp4554
ssS'.__xstat'
p4555
(dp4556
I0
(S'0x401820'
p4557
S'0x401825'
p4558
tp4559
ssS'trim2'
p4560
(dp4561
I0
(S'0x404320'
p4562
S'0x404339'
p4563
tp4564
sI1
(S'0x40433a'
p4565
S'0x40434b'
p4566
tp4567
sI2
(S'0x40434c'
p4568
S'0x404353'
p4569
tp4570
sI3
(S'0x404354'
p4571
S'0x404381'
p4572
tp4573
sI4
(S'0x404382'
p4574
S'0x40438f'
p4575
tp4576
sI5
(S'0x404390'
p4577
S'0x40439e'
p4578
tp4579
sI6
(S'0x40439f'
p4580
S'0x4043ab'
p4581
tp4582
sI7
(S'0x4043ac'
p4583
S'0x4043c5'
p4584
tp4585
sI8
(S'0x4043c6'
p4586
S'0x4043ea'
p4587
tp4588
sI9
(S'0x4043eb'
p4589
S'0x40441f'
p4590
tp4591
sI10
(S'0x404420'
p4592
S'0x404426'
p4593
tp4594
sI11
(S'0x404430'
p4595
S'0x404431'
p4596
tp4597
sI12
(S'0x404432'
p4598
S'0x40444f'
p4599
tp4600
sI13
(S'0x404450'
p4601
S'0x40445e'
p4602
tp4603
sI14
(S'0x40445f'
p4604
S'0x40446b'
p4605
tp4606
sI15
(S'0x40446c'
p4607
S'0x404470'
p4608
tp4609
sI16
(S'0x404471'
p4610
S'0x404477'
p4611
tp4612
sI17
(S'0x404478'
p4613
S'0x40447b'
p4614
tp4615
sI18
(S'0x40447c'
p4616
S'0x404486'
p4617
tp4618
sI19
(S'0x404487'
p4619
S'0x40449f'
p4620
tp4621
sI20
(S'0x4044a0'
p4622
S'0x4044aa'
p4623
tp4624
sI21
(S'0x4044ab'
p4625
S'0x4044b8'
p4626
tp4627
sI22
(S'0x4044b9'
p4628
S'0x4044d4'
p4629
tp4630
sI23
(S'0x4044d5'
p4631
S'0x4044e9'
p4632
tp4633
sI24
(S'0x4044ea'
p4634
S'0x4044ef'
p4635
tp4636
sI25
(S'0x4044f0'
p4637
S'0x4044fc'
p4638
tp4639
sI26
(S'0x4044fd'
p4640
S'0x404508'
p4641
tp4642
sI27
(S'0x404509'
p4643
S'0x40450a'
p4644
tp4645
sI28
(S'0x40450b'
p4646
S'0x40450c'
p4647
tp4648
sI29
(S'0x40450d'
p4649
S'0x404511'
p4650
tp4651
sI30
(S'0x404512'
p4652
S'0x404514'
p4653
tp4654
sI31
(S'0x404515'
p4655
S'0x404522'
p4656
tp4657
sI32
(S'0x404523'
p4658
S'0x404527'
p4659
tp4660
ssS'init_pagesize'
p4661
(dp4662
I0
(S'0x403fd0'
p4663
S'0x403fe0'
p4664
tp4665
ssS'mincore'
p4666
(dp4667
I0
(S'0x61a6a0'
p4668
S'0x61a6a3'
p4669
tp4670
ssS'stat'
p4671
(dp4672
I0
(S'0x406fa0'
p4673
S'0x406faf'
p4674
tp4675
ssS'open@@GLIBC_2.2.5'
p4676
(dp4677
I0
(S'0x61a5c0'
p4678
S'0x61a5c3'
p4679
tp4680
ssS'memcpy'
p4681
(dp4682
I0
(S'0x61a698'
p4683
S'0x61a69b'
p4684
tp4685
ssS'sigaddset'
p4686
(dp4687
I0
(S'0x61a6fc'
p4688
S'0x61a6ff'
p4689
tp4690
ssS'mapped_range_end'
p4691
(dp4692
I0
(S'0x4040f0'
p4693
S'0x404114'
p4694
tp4695
sI1
(S'0x404120'
p4696
S'0x404127'
p4697
tp4698
sI2
(S'0x404128'
p4699
S'0x40412b'
p4700
tp4701
sI3
(S'0x40412c'
p4702
S'0x404130'
p4703
tp4704
sI4
(S'0x404131'
p4705
S'0x40415c'
p4706
tp4707
sI5
(S'0x40415d'
p4708
S'0x40416e'
p4709
tp4710
sI6
(S'0x404170'
p4711
S'0x404176'
p4712
tp4713
sI7
(S'0x404177'
p4714
S'0x40417e'
p4715
tp4716
sI8
(S'0x40417f'
p4717
S'0x404183'
p4718
tp4719
sI9
(S'0x404190'
p4720
S'0x4041d2'
p4721
tp4722
sI10
(S'0x4041d3'
p4723
S'0x4041d8'
p4724
tp4725
sI11
(S'0x4041d9'
p4726
S'0x4041e7'
p4727
tp4728
sI12
(S'0x4041e8'
p4729
S'0x4041fb'
p4730
tp4731
ssS'mbiter_multi_copy'
p4732
(dp4733
I0
(S'0x405610'
p4734
S'0x405620'
p4735
tp4736
sI1
(S'0x405621'
p4737
S'0x40562a'
p4738
tp4739
sI2
(S'0x40562b'
p4740
S'0x405632'
p4741
tp4742
sI3
(S'0x405633'
p4743
S'0x405647'
p4744
tp4745
ssS'is_basic'
p4746
(dp4747
I0
(S'0x406e60'
p4748
S'0x406e74'
p4749
tp4750
ssS'.printf'
p4751
(dp4752
I0
(S'0x401700'
p4753
S'0x401705'
p4754
tp4755
ssS'try_help'
p4756
(dp4757
I0
(S'0x402250'
p4758
S'0x402255'
p4759
tp4760
sI1
(S'0x402256'
p4761
S'0x402278'
p4762
tp4763
sI2
(S'0x402279'
p4764
S'0x4022af'
p4765
tp4766
ssS'.wcwidth'
p4767
(dp4768
I0
(S'0x401840'
p4769
S'0x401845'
p4770
tp4771
ssS'xcalloc'
p4772
(dp4773
I0
(S'0x404c80'
p4774
S'0x404c8f'
p4775
tp4776
ssS'c_isprint'
p4777
(dp4778
I0
(S'0x406a20'
p4779
S'0x406a29'
p4780
tp4781
ssS'__gmon_start__'
p4782
(dp4783
I0
(S'0x61a708'
p4784
S'0x61a70b'
p4785
tp4786
ssS'sigsegv_handler'
p4787
(dp4788
I0
(S'0x4038f0'
p4789
S'0x403910'
p4790
tp4791
sI1
(S'0x403911'
p4792
S'0x40391f'
p4793
tp4794
sI2
(S'0x403920'
p4795
S'0x403929'
p4796
tp4797
sI3
(S'0x40392a'
p4798
S'0x403935'
p4799
tp4800
sI4
(S'0x403936'
p4801
S'0x40395b'
p4802
tp4803
sI5
(S'0x40395c'
p4804
S'0x403962'
p4805
tp4806
sI6
(S'0x403963'
p4807
S'0x403972'
p4808
tp4809
sI7
(S'0x403973'
p4810
S'0x40399a'
p4811
tp4812
sI8
(S'0x40399b'
p4813
S'0x4039a6'
p4814
tp4815
sI9
(S'0x4039a7'
p4816
S'0x4039b4'
p4817
tp4818
sI10
(S'0x4039b5'
p4819
S'0x4039c0'
p4820
tp4821
sI11
(S'0x4039c1'
p4822
S'0x4039cf'
p4823
tp4824
sI12
(S'0x4039d0'
p4825
S'0x4039dd'
p4826
tp4827
sI13
(S'0x4039de'
p4828
S'0x4039df'
p4829
tp4830
ssS'.reallocarray'
p4831
(dp4832
I0
(S'0x401630'
p4833
S'0x401635'
p4834
tp4835
ssS'xstdopen'
p4836
(dp4837
I0
(S'0x404da0'
p4838
S'0x404dab'
p4839
tp4840
sI1
(S'0x404dac'
p4841
S'0x404dd2'
p4842
tp4843
sI2
(S'0x404dd3'
p4844
S'0x404dd9'
p4845
tp4846
ssS'.ferror_unlocked'
p4847
(dp4848
I0
(S'0x4017b0'
p4849
S'0x4017b5'
p4850
tp4851
ssS'dcgettext@@GLIBC_2.2.5'
p4852
(dp4853
I0
(S'0x61a51c'
p4854
S'0x61a51f'
p4855
tp4856
ssS'strnlen@@GLIBC_2.2.5'
p4857
(dp4858
I0
(S'0x61a54c'
p4859
S'0x61a54f'
p4860
tp4861
ssS'munmap@@GLIBC_2.2.5'
p4862
(dp4863
I0
(S'0x61a5a8'
p4864
S'0x61a5ab'
p4865
tp4866
ssS'mbuiter_multi_reloc'
p4867
(dp4868
I0
(S'0x4062a0'
p4869
S'0x4062a4'
p4870
tp4871
ssS'.free'
p4872
(dp4873
I0
(S'0x401590'
p4874
S'0x401595'
p4875
tp4876
ssS'textdomain@@GLIBC_2.2.5'
p4877
(dp4878
I0
(S'0x61a510'
p4879
S'0x61a513'
p4880
tp4881
ssS'rof_open'
p4882
(dp4883
I0
(S'0x403bf0'
p4884
S'0x403c13'
p4885
tp4886
sI1
(S'0x403c14'
p4887
S'0x403c47'
p4888
tp4889
sI2
(S'0x403c50'
p4890
S'0x403c59'
p4891
tp4892
sI3
(S'0x403c5a'
p4893
S'0x403c6e'
p4894
tp4895
sI4
(S'0x403c6f'
p4896
S'0x403c7b'
p4897
tp4898
sI5
(S'0x403c7c'
p4899
S'0x403c91'
p4900
tp4901
sI6
(S'0x403c92'
p4902
S'0x403ca5'
p4903
tp4904
sI7
(S'0x403ca6'
p4905
S'0x403cad'
p4906
tp4907
sI8
(S'0x403cae'
p4908
S'0x403cce'
p4909
tp4910
sI9
(S'0x403ccf'
p4911
S'0x403cef'
p4912
tp4913
sI10
(S'0x403cf0'
p4914
S'0x403cfb'
p4915
tp4916
sI11
(S'0x403cfc'
p4917
S'0x403d1f'
p4918
tp4919
sI12
(S'0x403d20'
p4920
S'0x403d27'
p4921
tp4922
sI13
(S'0x403d28'
p4923
S'0x403d41'
p4924
tp4925
sI14
(S'0x403d42'
p4926
S'0x403d50'
p4927
tp4928
sI15
(S'0x403d51'
p4929
S'0x403d52'
p4930
tp4931
sI16
(S'0x403d53'
p4932
S'0x403d6f'
p4933
tp4934
sI17
(S'0x403d70'
p4935
S'0x403d78'
p4936
tp4937
sI18
(S'0x403d79'
p4938
S'0x403d7d'
p4939
tp4940
sI19
(S'0x403d7e'
p4941
S'0x403d86'
p4942
tp4943
sI20
(S'0x403d87'
p4944
S'0x403d8f'
p4945
tp4946
sI21
(S'0x403d90'
p4947
S'0x403d9a'
p4948
tp4949
sI22
(S'0x403da0'
p4950
S'0x403daf'
p4951
tp4952
sI23
(S'0x403db0'
p4953
S'0x403dbe'
p4954
tp4955
sI24
(S'0x403dbf'
p4956
S'0x403de5'
p4957
tp4958
sI25
(S'0x403de6'
p4959
S'0x403e02'
p4960
tp4961
sI26
(S'0x403e03'
p4962
S'0x403e23'
p4963
tp4964
sI27
(S'0x403e24'
p4965
S'0x403e25'
p4966
tp4967
sI28
(S'0x403e26'
p4968
S'0x403e3c'
p4969
tp4970
sI29
(S'0x403e3d'
p4971
S'0x403e41'
p4972
tp4973
sI30
(S'0x403e42'
p4974
S'0x403e48'
p4975
tp4976
sI31
(S'0x403e49'
p4977
S'0x403e57'
p4978
tp4979
sI32
(S'0x403e58'
p4980
S'0x403e5d'
p4981
tp4982
sI33
(S'0x403e5e'
p4983
S'0x403e65'
p4984
tp4985
sI34
(S'0x403e66'
p4986
S'0x403e73'
p4987
tp4988
sI35
(S'0x403e74'
p4989
S'0x403e7e'
p4990
tp4991
sI36
(S'0x403e7f'
p4992
S'0x403e80'
p4993
tp4994
sI37
(S'0x403e81'
p4995
S'0x403e91'
p4996
tp4997
ssS'mmap@@GLIBC_2.2.5'
p4998
(dp4999
I0
(S'0x61a528'
p5000
S'0x61a52b'
p5001
tp5002
ss.