(dp0
S'strncmp'
p1
(lp2
(lp3
I0
aI0
aI0
aI0
aasS'lseek'
p4
(lp5
(lp6
I0
aI0
aI0
aI0
aasS'malloc'
p7
(lp8
(lp9
I0
aI0
aI0
aI0
aasS'__assert_fail'
p10
(lp11
(lp12
I0
aI0
aI0
aI0
aasS'setlocale'
p13
(lp14
(lp15
I0
aI0
aI0
aI0
aasS'__do_global_dtors_aux'
p16
(lp17
(lp18
I128
aI61
aI65
aI136
aI32
aI0
aI0
aI-1
aI117
aI23
aI-1
aI-1
aI256
aI243
aI195
aI-1
aI-1
aasS'memset'
p19
(lp20
(lp21
I0
aI0
aI0
aI0
aasS'fclose'
p22
(lp23
(lp24
I0
aI0
aI0
aI0
aasS'segv_handler'
p25
(lp26
(lp27
I133
aI246
aI-1
aI-1
aI117
aI3
aI-1
aI-1
aI256
aI80
aI-1
aI-1
aI-1
aI191
aI11
aI0
aI0
aI0
aI-1
aI-1
aI-1
aI232
aI14
aI0
aI0
aI0
aI-1
aI-1
aI-1
aasS'fwrite'
p28
(lp29
(lp30
I0
aI0
aI0
aI0
aasS'abort'
p31
(lp32
(lp33
I0
aI0
aI0
aI0
aasS'__libc_start_main'
p34
(lp35
(lp36
I0
aI0
aI0
aI0
aasS'rpl_free'
p37
(lp38
(lp39
I85
aI-1
aI-1
aI-1
aI65
aI86
aI-1
aI-1
aI83
aI-1
aI-1
aI-1
aI73
aI137
aI254
aI-1
aI232
aI180
aI193
aI255
aI255
aI-1
aI-1
aI-1
aI72
aI137
aI195
aI-1
aI139
aI40
aI-1
aI-1
aI76
aI137
aI247
aI-1
aI232
aI119
aI193
aI255
aI255
aI-1
aI-1
aI-1
aI137
aI43
aI-1
aI-1
aI91
aI-1
aI-1
aI-1
aI65
aI94
aI-1
aI-1
aI93
aI-1
aI-1
aI-1
aI195
aI-1
aI-1
aI-1
aasS'__ctype_get_mb_cur_max'
p40
(lp41
(lp42
I0
aI0
aI0
aI0
aasS'close'
p43
(lp44
(lp45
I0
aI0
aI0
aI0
aasS'bindtextdomain'
p46
(lp47
(lp48
I0
aI0
aI0
aI0
aasS'__gmon_start__'
p49
(lp50
(lp51
I0
aI0
aI0
aI0
aasS'mincore_is_near_this'
p52
(lp53
(lp54
I80
aI-1
aI-1
aI-1
aI72
aI137
aI249
aI-1
aI72
aI139
aI54
aI-1
aI72
aI41
aI247
aI-1
aI72
aI1
aI207
aI-1
aI49
aI192
aI-1
aI-1
aI72
aI57
aI207
aI-1
aI119
aI9
aI-1
aI-1
aI256
aI89
aI-1
aI-1
aI-1
aI195
aI-1
aI-1
aI-1
aa(lp55
I80
aI-1
aI-1
aI-1
aI72
aI137
aI249
aI-1
aI72
aI139
aI54
aI-1
aI72
aI41
aI247
aI-1
aI72
aI1
aI207
aI-1
aI49
aI192
aI-1
aI-1
aI72
aI57
aI207
aI-1
aI119
aI9
aI-1
aI-1
aI256
aI72
aI131
aI198
aI255
aI232
aI3
aI0
aI0
aI0
aI-1
aI-1
aI-1
aI256
aI89
aI-1
aI-1
aI-1
aI195
aI-1
aI-1
aI-1
aasS'nl_langinfo'
p56
(lp57
(lp58
I0
aI0
aI0
aI0
aasS'__libc_csu_init'
p59
(lp60
(lp61
I65
aI87
aI-1
aI-1
aI65
aI86
aI-1
aI-1
aI73
aI137
aI215
aI-1
aI65
aI85
aI-1
aI-1
aI65
aI84
aI-1
aI-1
aI76
aI141
aI37
aI222
aI46
aI32
aI0
aI-1
aI85
aI-1
aI-1
aI-1
aI72
aI141
aI45
aI222
aI46
aI32
aI0
aI-1
aI83
aI-1
aI-1
aI-1
aI65
aI137
aI253
aI-1
aI73
aI137
aI246
aI-1
aI76
aI41
aI229
aI-1
aI72
aI131
aI236
aI8
aI72
aI193
aI253
aI3
aI232
aI7
aI166
aI255
aI255
aI-1
aI-1
aI-1
aI72
aI133
aI237
aI-1
aI116
aI32
aI-1
aI-1
aI256
aI72
aI131
aI196
aI8
aI91
aI-1
aI-1
aI-1
aI93
aI-1
aI-1
aI-1
aI65
aI92
aI-1
aI-1
aI65
aI93
aI-1
aI-1
aI65
aI94
aI-1
aI-1
aI65
aI95
aI-1
aI-1
aI195
aI-1
aI-1
aI-1
aa(lp62
I65
aI87
aI-1
aI-1
aI65
aI86
aI-1
aI-1
aI73
aI137
aI215
aI-1
aI65
aI85
aI-1
aI-1
aI65
aI84
aI-1
aI-1
aI76
aI141
aI37
aI222
aI46
aI32
aI0
aI-1
aI85
aI-1
aI-1
aI-1
aI72
aI141
aI45
aI222
aI46
aI32
aI0
aI-1
aI83
aI-1
aI-1
aI-1
aI65
aI137
aI253
aI-1
aI73
aI137
aI246
aI-1
aI76
aI41
aI229
aI-1
aI72
aI131
aI236
aI8
aI72
aI193
aI253
aI3
aI232
aI7
aI166
aI255
aI255
aI-1
aI-1
aI-1
aI72
aI133
aI237
aI-1
aI116
aI32
aI-1
aI-1
aI256
aI49
aI219
aI-1
aI-1
aI15
aI31
aI132
aI0
aI0
aI0
aI0
aI0
aI256
aI76
aI137
aI250
aI-1
aI76
aI137
aI246
aI-1
aI68
aI137
aI239
aI-1
aI65
aI255
aI20
aI220
aI72
aI131
aI195
aI1
aI72
aI57
aI221
aI-1
aI117
aI234
aI-1
aI-1
aI256
aI72
aI131
aI196
aI8
aI91
aI-1
aI-1
aI-1
aI93
aI-1
aI-1
aI-1
aI65
aI92
aI-1
aI-1
aI65
aI93
aI-1
aI-1
aI65
aI94
aI-1
aI-1
aI65
aI95
aI-1
aI-1
aI195
aI-1
aI-1
aI-1
aasS'strchr'
p63
(lp64
(lp65
I0
aI0
aI0
aI0
aasS'iconv'
p66
(lp67
(lp68
I0
aI0
aI0
aI0
aasS'error'
p69
(lp70
(lp71
I0
aI0
aI0
aI0
aasS'raise'
p72
(lp73
(lp74
I0
aI0
aI0
aI0
aasS'puts'
p75
(lp76
(lp77
I0
aI0
aI0
aI0
aasS'iswalnum'
p78
(lp79
(lp80
I0
aI0
aI0
aI0
aasS'open'
p81
(lp82
(lp83
I0
aI0
aI0
aI0
aasS'mmap'
p84
(lp85
(lp86
I0
aI0
aI0
aI0
aasS'fputs_unlocked'
p87
(lp88
(lp89
I0
aI0
aI0
aI0
aasS'overflow_handler'
p90
(lp91
(lp92
I80
aI-1
aI-1
aI-1
aI137
aI248
aI-1
aI-1
aI49
aI255
aI-1
aI-1
aI133
aI192
aI-1
aI-1
aI116
aI17
aI-1
aI-1
aI256
aI232
aI33
aI0
aI0
aI0
aI-1
aI-1
aI-1
aa(lp93
I80
aI-1
aI-1
aI-1
aI137
aI248
aI-1
aI-1
aI49
aI255
aI-1
aI-1
aI133
aI192
aI-1
aI-1
aI116
aI17
aI-1
aI-1
aI256
aI49
aI192
aI-1
aI-1
aI131
aI61
aI110
aI119
aI33
aI0
aI0
aI-1
aI191
aI11
aI0
aI0
aI0
aI-1
aI-1
aI-1
aI15
aI69
aI248
aI-1
aI256
aI232
aI33
aI0
aI0
aI0
aI-1
aI-1
aI-1
aasS'write'
p94
(lp95
(lp96
I0
aI0
aI0
aI0
aasS'dcgettext'
p97
(lp98
(lp99
I0
aI0
aI0
aI0
aasS'exit'
p100
(lp101
(lp102
I0
aI0
aI0
aI0
aasS'reallocarray'
p103
(lp104
(lp105
I0
aI0
aI0
aI0
aasS'strtoimax'
p106
(lp107
(lp108
I0
aI0
aI0
aI0
aasS'realloc'
p109
(lp110
(lp111
I0
aI0
aI0
aI0
aasS'__ctype_b_loc'
p112
(lp113
(lp114
I0
aI0
aI0
aI0
aasS'strrchr'
p115
(lp116
(lp117
I0
aI0
aI0
aI0
aasS'strdup'
p118
(lp119
(lp120
I0
aI0
aI0
aI0
aasS'main'
p121
(lp122
(lp123
I85
aI-1
aI-1
aI-1
aI65
aI87
aI-1
aI-1
aI65
aI86
aI-1
aI-1
aI83
aI-1
aI-1
aI-1
aI72
aI129
aI236
aI40
aI1
aI0
aI0
aI-1
aI73
aI137
aI247
aI-1
aI137
aI253
aI-1
aI-1
aI199
aI5
aI132
aI135
aI32
aI0
aI2
aI0
aI0
aI0
aI-1
aI-1
aI72
aI139
aI62
aI-1
aI232
aI140
aI20
aI0
aI0
aI-1
aI-1
aI-1
aI190
aI-1
aI-1
aI-1
aI0
aI-1
aI-1
aI-1
aI191
aI6
aI0
aI0
aI0
aI-1
aI-1
aI-1
aI232
aI205
aI253
aI255
aI255
aI-1
aI-1
aI-1
aI191
aI-1
aI-1
aI-1
aI0
aI-1
aI-1
aI-1
aI190
aI-1
aI-1
aI-1
aI0
aI-1
aI-1
aI-1
aI232
aI126
aI251
aI255
aI255
aI-1
aI-1
aI-1
aI191
aI-1
aI-1
aI-1
aI0
aI-1
aI-1
aI-1
aI232
aI84
aI251
aI255
aI255
aI-1
aI-1
aI-1
aI49
aI255
aI-1
aI-1
aI232
aI93
aI17
aI0
aI0
aI-1
aI-1
aI-1
aI232
aI136
aI50
aI0
aI0
aI-1
aI-1
aI-1
aI76
aI141
aI116
aI36
aI8
aI-1
aI-1
aI-1
aI256
aI186
aI-1
aI-1
aI-1
aI0
aI-1
aI-1
aI-1
aI185
aI-1
aI-1
aI-1
aI0
aI-1
aI-1
aI-1
aI137
aI239
aI-1
aI-1
aI76
aI137
aI254
aI-1
aI69
aI49
aI192
aI-1
aI232
aI156
aI251
aI255
aI255
aI-1
aI-1
aI-1
aI141
aI72
aI158
aI-1
aI131
aI249
aI30
aI-1
aI15
aI135
aI214
aI0
aI0
aI0
aI-1
aI-1
aI256
aI131
aI248
aI255
aI-1
aI15
aI133
aI19
aI5
aI0
aI0
aI-1
aI-1
aI256
aI72
aI99
aI5
aI106
aI134
aI32
aI0
aI-1
aI57
aI232
aI-1
aI-1
aI15
aI132
aI78
aI5
aI0
aI0
aI-1
aI-1
aI256
aI72
aI99
aI197
aI-1
aI73
aI139
aI116
aI199
aI248
aI-1
aI-1
aI-1
aI191
aI-1
aI-1
aI-1
aI0
aI-1
aI-1
aI-1
aI232
aI194
aI0
aI0
aI0
aI-1
aI-1
aI-1
aI256
aI72
aI152
aI-1
aI-1
aI73
aI139
aI52
aI199
aI191
aI-1
aI-1
aI-1
aI0
aI-1
aI-1
aI-1
aI232
aI178
aI0
aI0
aI0
aI-1
aI-1
aI-1
aI256
aI191
aI1
aI0
aI0
aI0
aI-1
aI-1
aI-1
aI232
aI168
aI247
aI255
aI255
aI-1
aI-1
aI-1
aa(lp124
I85
aI-1
aI-1
aI-1
aI65
aI87
aI-1
aI-1
aI65
aI86
aI-1
aI-1
aI83
aI-1
aI-1
aI-1
aI72
aI129
aI236
aI40
aI1
aI0
aI0
aI-1
aI73
aI137
aI247
aI-1
aI137
aI253
aI-1
aI-1
aI199
aI5
aI132
aI135
aI32
aI0
aI2
aI0
aI0
aI0
aI-1
aI-1
aI72
aI139
aI62
aI-1
aI232
aI140
aI20
aI0
aI0
aI-1
aI-1
aI-1
aI190
aI-1
aI-1
aI-1
aI0
aI-1
aI-1
aI-1
aI191
aI6
aI0
aI0
aI0
aI-1
aI-1
aI-1
aI232
aI205
aI253
aI255
aI255
aI-1
aI-1
aI-1
aI191
aI-1
aI-1
aI-1
aI0
aI-1
aI-1
aI-1
aI190
aI-1
aI-1
aI-1
aI0
aI-1
aI-1
aI-1
aI232
aI126
aI251
aI255
aI255
aI-1
aI-1
aI-1
aI191
aI-1
aI-1
aI-1
aI0
aI-1
aI-1
aI-1
aI232
aI84
aI251
aI255
aI255
aI-1
aI-1
aI-1
aI49
aI255
aI-1
aI-1
aI232
aI93
aI17
aI0
aI0
aI-1
aI-1
aI-1
aI232
aI136
aI50
aI0
aI0
aI-1
aI-1
aI-1
aI76
aI141
aI116
aI36
aI8
aI-1
aI-1
aI-1
aI256
aI186
aI-1
aI-1
aI-1
aI0
aI-1
aI-1
aI-1
aI185
aI-1
aI-1
aI-1
aI0
aI-1
aI-1
aI-1
aI137
aI239
aI-1
aI-1
aI76
aI137
aI254
aI-1
aI69
aI49
aI192
aI-1
aI232
aI156
aI251
aI255
aI255
aI-1
aI-1
aI-1
aI141
aI72
aI158
aI-1
aI131
aI249
aI30
aI-1
aI15
aI135
aI214
aI0
aI0
aI0
aI-1
aI-1
aI256
aI131
aI248
aI255
aI-1
aI15
aI133
aI19
aI5
aI0
aI0
aI-1
aI-1
aI256
aI72
aI99
aI5
aI106
aI134
aI32
aI0
aI-1
aI57
aI232
aI-1
aI-1
aI15
aI132
aI78
aI5
aI0
aI0
aI-1
aI-1
aI256
aI141
aI80
aI1
aI-1
aI137
aI21
aI89
aI134
aI32
aI0
aI-1
aI-1
aI73
aI139
aI12
aI199
aI72
aI137
aI13
aI174
aI134
aI32
aI0
aI-1
aI185
aI-1
aI-1
aI-1
aI0
aI-1
aI-1
aI-1
aI57
aI234
aI-1
aI-1
aI125
aI14
aI-1
aI-1
aI256
aI72
aI137
aI13
aI152
aI134
aI32
aI0
aI-1
aI139
aI5
aI42
aI134
aI32
aI0
aI-1
aI-1
aI57
aI232
aI-1
aI-1
aI15
aI156
aI193
aI-1
aI125
aI73
aI-1
aI-1
aI256
aI132
aI201
aI-1
aI-1
aI15
aI133
aI208
aI4
aI0
aI0
aI-1
aI-1
aI256
aI72
aI152
aI-1
aI-1
aI73
aI139
aI52
aI199
aI191
aI-1
aI-1
aI-1
aI0
aI-1
aI-1
aI-1
aI232
aI178
aI0
aI0
aI0
aI-1
aI-1
aI-1
aI256
aI191
aI1
aI0
aI0
aI0
aI-1
aI-1
aI-1
aI232
aI168
aI247
aI255
aI255
aI-1
aI-1
aI-1
aa(lp125
I85
aI-1
aI-1
aI-1
aI65
aI87
aI-1
aI-1
aI65
aI86
aI-1
aI-1
aI83
aI-1
aI-1
aI-1
aI72
aI129
aI236
aI40
aI1
aI0
aI0
aI-1
aI73
aI137
aI247
aI-1
aI137
aI253
aI-1
aI-1
aI199
aI5
aI132
aI135
aI32
aI0
aI2
aI0
aI0
aI0
aI-1
aI-1
aI72
aI139
aI62
aI-1
aI232
aI140
aI20
aI0
aI0
aI-1
aI-1
aI-1
aI190
aI-1
aI-1
aI-1
aI0
aI-1
aI-1
aI-1
aI191
aI6
aI0
aI0
aI0
aI-1
aI-1
aI-1
aI232
aI205
aI253
aI255
aI255
aI-1
aI-1
aI-1
aI191
aI-1
aI-1
aI-1
aI0
aI-1
aI-1
aI-1
aI190
aI-1
aI-1
aI-1
aI0
aI-1
aI-1
aI-1
aI232
aI126
aI251
aI255
aI255
aI-1
aI-1
aI-1
aI191
aI-1
aI-1
aI-1
aI0
aI-1
aI-1
aI-1
aI232
aI84
aI251
aI255
aI255
aI-1
aI-1
aI-1
aI49
aI255
aI-1
aI-1
aI232
aI93
aI17
aI0
aI0
aI-1
aI-1
aI-1
aI232
aI136
aI50
aI0
aI0
aI-1
aI-1
aI-1
aI76
aI141
aI116
aI36
aI8
aI-1
aI-1
aI-1
aI256
aI186
aI-1
aI-1
aI-1
aI0
aI-1
aI-1
aI-1
aI185
aI-1
aI-1
aI-1
aI0
aI-1
aI-1
aI-1
aI137
aI239
aI-1
aI-1
aI76
aI137
aI254
aI-1
aI69
aI49
aI192
aI-1
aI232
aI156
aI251
aI255
aI255
aI-1
aI-1
aI-1
aI141
aI72
aI158
aI-1
aI131
aI249
aI30
aI-1
aI15
aI135
aI214
aI0
aI0
aI0
aI-1
aI-1
aI256
aI131
aI248
aI255
aI-1
aI15
aI133
aI19
aI5
aI0
aI0
aI-1
aI-1
aI256
aI72
aI99
aI5
aI106
aI134
aI32
aI0
aI-1
aI57
aI232
aI-1
aI-1
aI15
aI132
aI78
aI5
aI0
aI0
aI-1
aI-1
aI256
aI141
aI80
aI1
aI-1
aI137
aI21
aI89
aI134
aI32
aI0
aI-1
aI-1
aI73
aI139
aI12
aI199
aI72
aI137
aI13
aI174
aI134
aI32
aI0
aI-1
aI185
aI-1
aI-1
aI-1
aI0
aI-1
aI-1
aI-1
aI57
aI234
aI-1
aI-1
aI125
aI14
aI-1
aI-1
aI256
aI141
aI72
aI2
aI-1
aI137
aI13
aI60
aI134
aI32
aI0
aI-1
aI-1
aI73
aI139
aI76
aI199
aI8
aI-1
aI-1
aI-1
aI256
aI72
aI137
aI13
aI152
aI134
aI32
aI0
aI-1
aI139
aI5
aI42
aI134
aI32
aI0
aI-1
aI-1
aI57
aI232
aI-1
aI-1
aI15
aI156
aI193
aI-1
aI125
aI73
aI-1
aI-1
aI256
aI132
aI201
aI-1
aI-1
aI15
aI133
aI208
aI4
aI0
aI0
aI-1
aI-1
aI256
aI72
aI152
aI-1
aI-1
aI73
aI139
aI52
aI199
aI191
aI-1
aI-1
aI-1
aI0
aI-1
aI-1
aI-1
aI232
aI178
aI0
aI0
aI0
aI-1
aI-1
aI-1
aI256
aI191
aI1
aI0
aI0
aI0
aI-1
aI-1
aI-1
aI232
aI168
aI247
aI255
aI255
aI-1
aI-1
aI-1
aasS'munmap'
p126
(lp127
(lp128
I0
aI0
aI0
aI0
aasS'ferror_unlocked'
p129
(lp130
(lp131
I0
aI0
aI0
aI0
aasS'mincore'
p132
(lp133
(lp134
I0
aI0
aI0
aI0
aasS'sprintf'
p135
(lp136
(lp137
I0
aI0
aI0
aI0
aasS'fcntl'
p138
(lp139
(lp140
I0
aI0
aI0
aI0
aasS'getpagesize'
p141
(lp142
(lp143
I0
aI0
aI0
aI0
aasS'simple_is_near_this'
p144
(lp145
(lp146
I72
aI139
aI14
aI-1
aI72
aI137
aI202
aI-1
aI72
aI41
aI250
aI-1
aI72
aI43
aI78
aI24
aI72
aI209
aI233
aI-1
aI49
aI192
aI-1
aI-1
aI72
aI57
aI202
aI-1
aI15
aI150
aI192
aI-1
aI195
aI-1
aI-1
aI-1
aasS'mbrtowc'
p147
(lp148
(lp149
I0
aI0
aI0
aI0
aasS'__fxstat'
p150
(lp151
(lp152
I0
aI0
aI0
aI0
aasS'read'
p153
(lp154
(lp155
I0
aI0
aI0
aI0
aasS'iconv_open'
p156
(lp157
(lp158
I0
aI0
aI0
aI0
aasS'iswcntrl'
p159
(lp160
(lp161
I0
aI0
aI0
aI0
aasS'iswspace'
p162
(lp163
(lp164
I0
aI0
aI0
aI0
aasS'__libc_csu_fini'
p165
(lp166
(lp167
I243
aI195
aI-1
aI-1
aasS'sigaddset'
p168
(lp169
(lp170
I0
aI0
aI0
aI0
aasS'free'
p171
(lp172
(lp173
I0
aI0
aI0
aI0
aasS'null_action'
p174
(lp175
(lp176
I195
aI-1
aI-1
aI-1
aasS'frame_dummy'
p177
(lp178
(lp179
I85
aI-1
aI-1
aI-1
aI72
aI137
aI229
aI-1
aI93
aI-1
aI-1
aI-1
aI235
aI137
aI-1
aI-1
aasS'bcmp'
p180
(lp181
(lp182
I0
aI0
aI0
aI0
aasS'rawmemchr'
p183
(lp184
(lp185
I0
aI0
aI0
aI0
aasS'iconv_close'
p186
(lp187
(lp188
I0
aI0
aI0
aI0
aasS'calloc'
p189
(lp190
(lp191
I0
aI0
aI0
aI0
aasS'printf'
p192
(lp193
(lp194
I0
aI0
aI0
aI0
aasS'strlen'
p195
(lp196
(lp197
I0
aI0
aI0
aI0
aasS'getopt_long'
p198
(lp199
(lp200
I0
aI0
aI0
aI0
aasS'sigaction'
p201
(lp202
(lp203
I0
aI0
aI0
aI0
aasS'memcpy'
p204
(lp205
(lp206
I0
aI0
aI0
aI0
aasS'strnlen'
p207
(lp208
(lp209
I0
aI0
aI0
aI0
aasS'mincore_get_vma'
p210
(lp211
(lp212
I65
aI86
aI-1
aI-1
aI83
aI-1
aI-1
aI-1
aI80
aI-1
aI-1
aI-1
aI73
aI137
aI246
aI-1
aI72
aI137
aI251
aI-1
aI72
aI131
aI61
aI70
aI106
aI33
aI0
aI0
aI117
aI5
aI-1
aI-1
aI256
aI72
aI137
aI216
aI-1
aI49
aI210
aI-1
aI-1
aI72
aI247
aI53
aI51
aI106
aI33
aI0
aI-1
aI72
aI41
aI211
aI-1
aI72
aI137
aI223
aI-1
aI232
aI80
aI5
aI0
aI0
aI-1
aI-1
aI-1
aI73
aI137
aI6
aI-1
aI72
aI137
aI223
aI-1
aI232
aI69
aI6
aI0
aI0
aI-1
aI-1
aI-1
aI73
aI137
aI70
aI8
aI73
aI199
aI70
aI16
aI-1
aI-1
aI-1
aI0
aI72
aI131
aI196
aI8
aI91
aI-1
aI-1
aI-1
aI65
aI94
aI-1
aI-1
aI195
aI-1
aI-1
aI-1
aa(lp213
I65
aI86
aI-1
aI-1
aI83
aI-1
aI-1
aI-1
aI80
aI-1
aI-1
aI-1
aI73
aI137
aI246
aI-1
aI72
aI137
aI251
aI-1
aI72
aI131
aI61
aI70
aI106
aI33
aI0
aI0
aI117
aI5
aI-1
aI-1
aI256
aI232
aI71
aI5
aI0
aI0
aI-1
aI-1
aI-1
aI256
aI72
aI137
aI216
aI-1
aI49
aI210
aI-1
aI-1
aI72
aI247
aI53
aI51
aI106
aI33
aI0
aI-1
aI72
aI41
aI211
aI-1
aI72
aI137
aI223
aI-1
aI232
aI80
aI5
aI0
aI0
aI-1
aI-1
aI-1
aI73
aI137
aI6
aI-1
aI72
aI137
aI223
aI-1
aI232
aI69
aI6
aI0
aI0
aI-1
aI-1
aI-1
aI73
aI137
aI70
aI8
aI73
aI199
aI70
aI16
aI-1
aI-1
aI-1
aI0
aI72
aI131
aI196
aI8
aI91
aI-1
aI-1
aI-1
aI65
aI94
aI-1
aI-1
aI195
aI-1
aI-1
aI-1
aasS'perror'
p214
(lp215
(lp216
I0
aI0
aI0
aI0
aasS'sigsegv_handler'
p217
(lp218
(lp219
I85
aI-1
aI-1
aI-1
aI65
aI87
aI-1
aI-1
aI65
aI86
aI-1
aI-1
aI65
aI85
aI-1
aI-1
aI65
aI84
aI-1
aI-1
aI83
aI-1
aI-1
aI-1
aI72
aI131
aI236
aI40
aI73
aI137
aI214
aI-1
aI76
aI139
aI126
aI16
aI72
aI139
aI5
aI148
aI107
aI33
aI0
aI-1
aI72
aI133
aI192
aI-1
aI116
aI15
aI-1
aI-1
aI256
aI72
aI131
aI61
aI128
aI107
aI33
aI0
aI0
aI116
aI113
aI-1
aI-1
aI256
aI72
aI139
aI29
aI127
aI107
aI33
aI0
aI-1
aI72
aI133
aI219
aI-1
aI116
aI101
aI-1
aI-1
aI256
aI77
aI139
aI174
aI160
aI0
aI0
aI0
aI-1
aI232
aI126
aI220
aI255
aI255
aI-1
aI-1
aI-1
aI73
aI137
aI196
aI-1
aI139
aI40
aI-1
aI-1
aI72
aI141
aI116
aI36
aI8
aI-1
aI-1
aI-1
aI72
aI137
aI223
aI-1
aI232
aI140
aI0
aI0
aI0
aI-1
aI-1
aI-1
aI65
aI137
aI44
aI36
aI133
aI192
aI-1
aI-1
aI120
aI63
aI-1
aI-1
aI256
aI76
aI57
aI124
aI36
aI8
aI-1
aI-1
aI-1
aI118
aI109
aI-1
aI-1
aI256
aI72
aI139
aI68
aI36
aI16
aI-1
aI-1
aI-1
aI72
aI131
aI192
aI255
aI76
aI57
aI248
aI-1
aI115
aI149
aI-1
aI-1
aI256
aI235
aI187
aI-1
aI-1
aa(lp220
I85
aI-1
aI-1
aI-1
aI65
aI87
aI-1
aI-1
aI65
aI86
aI-1
aI-1
aI65
aI85
aI-1
aI-1
aI65
aI84
aI-1
aI-1
aI83
aI-1
aI-1
aI-1
aI72
aI131
aI236
aI40
aI73
aI137
aI214
aI-1
aI76
aI139
aI126
aI16
aI72
aI139
aI5
aI148
aI107
aI33
aI0
aI-1
aI72
aI133
aI192
aI-1
aI116
aI15
aI-1
aI-1
aI256
aI76
aI137
aI255
aI-1
aI49
aI246
aI-1
aI-1
aI255
aI208
aI-1
aI-1
aI133
aI192
aI-1
aI-1
aI15
aI133
aI161
aI0
aI0
aI0
aI-1
aI-1
aI256
aI72
aI131
aI61
aI128
aI107
aI33
aI0
aI0
aI116
aI113
aI-1
aI-1
aI256
aI72
aI139
aI29
aI127
aI107
aI33
aI0
aI-1
aI72
aI133
aI219
aI-1
aI116
aI101
aI-1
aI-1
aI256
aI77
aI139
aI174
aI160
aI0
aI0
aI0
aI-1
aI232
aI126
aI220
aI255
aI255
aI-1
aI-1
aI-1
aI73
aI137
aI196
aI-1
aI139
aI40
aI-1
aI-1
aI72
aI141
aI116
aI36
aI8
aI-1
aI-1
aI-1
aI72
aI137
aI223
aI-1
aI232
aI140
aI0
aI0
aI0
aI-1
aI-1
aI-1
aI65
aI137
aI44
aI36
aI133
aI192
aI-1
aI-1
aI120
aI63
aI-1
aI-1
aI256
aI76
aI57
aI124
aI36
aI8
aI-1
aI-1
aI-1
aI118
aI109
aI-1
aI-1
aI256
aI72
aI139
aI68
aI36
aI16
aI-1
aI-1
aI-1
aI72
aI131
aI192
aI255
aI76
aI57
aI248
aI-1
aI115
aI149
aI-1
aI-1
aI256
aI235
aI187
aI-1
aI-1
aasS'memmove'
p221
(lp222
(lp223
I0
aI0
aI0
aI0
aasS'signal'
p224
(lp225
(lp226
I0
aI0
aI0
aI0
aasS'__errno_location'
p227
(lp228
(lp229
I0
aI0
aI0
aI0
aasS'wcwidth'
p230
(lp231
(lp232
I0
aI0
aI0
aI0
aasS'sigaltstack'
p233
(lp234
(lp235
I0
aI0
aI0
aI0
aasS'textdomain'
p236
(lp237
(lp238
I0
aI0
aI0
aI0
aasS'__xstat'
p239
(lp240
(lp241
I0
aI0
aI0
aI0
aasS'fprintf'
p242
(lp243
(lp244
I0
aI0
aI0
aI0
aasS'_exit'
p245
(lp246
(lp247
I0
aI0
aI0
aI0
aasS'sigemptyset'
p248
(lp249
(lp250
I0
aI0
aI0
aI0
aasS'strcmp'
p251
(lp252
(lp253
I0
aI0
aI0
aI0
aasS'memchr'
p254
(lp255
(lp256
I0
aI0
aI0
aI0
aasS'mbsinit'
p257
(lp258
(lp259
I0
aI0
aI0
aI0
aas.