(dp0
S'sigsegv_handler'
p1
(dp2
S'0x403916'
p3
(lp4
(lp5
I85
aI-1
aI-1
aI-1
aI65
aI87
aI-1
aI-1
aI65
aI86
aI-1
aI-1
aI65
aI85
aI-1
aI-1
aI65
aI84
aI-1
aI-1
aI83
aI-1
aI-1
aI-1
aI72
aI131
aI236
aI40
aI73
aI137
aI214
aI-1
aI76
aI139
aI126
aI16
aI72
aI139
aI5
aI148
aI107
aI33
aI0
aI-1
aI72
aI133
aI192
aI-1
aI116
aI15
aI-1
aI-1
aI256
aI76
aI137
aI255
aI-1
aI49
aI246
aI-1
aI-1
aI255
aI208
aI-1
aI-1
aasS'0x403995'
p6
(lp7
(lp8
I85
aI-1
aI-1
aI-1
aI65
aI87
aI-1
aI-1
aI65
aI86
aI-1
aI-1
aI65
aI85
aI-1
aI-1
aI65
aI84
aI-1
aI-1
aI83
aI-1
aI-1
aI-1
aI72
aI131
aI236
aI40
aI73
aI137
aI214
aI-1
aI76
aI139
aI126
aI16
aI72
aI139
aI5
aI148
aI107
aI33
aI0
aI-1
aI72
aI133
aI192
aI-1
aI116
aI15
aI-1
aI-1
aI256
aI72
aI131
aI61
aI128
aI107
aI33
aI0
aI0
aI116
aI113
aI-1
aI-1
aI256
aI72
aI139
aI29
aI127
aI107
aI33
aI0
aI-1
aI72
aI133
aI219
aI-1
aI116
aI101
aI-1
aI-1
aI256
aI77
aI139
aI174
aI160
aI0
aI0
aI0
aI-1
aI232
aI126
aI220
aI255
aI255
aI-1
aI-1
aI-1
aI73
aI137
aI196
aI-1
aI139
aI40
aI-1
aI-1
aI72
aI141
aI116
aI36
aI8
aI-1
aI-1
aI-1
aI72
aI137
aI223
aI-1
aI232
aI140
aI0
aI0
aI0
aI-1
aI-1
aI-1
aI65
aI137
aI44
aI36
aI133
aI192
aI-1
aI-1
aI120
aI63
aI-1
aI-1
aI256
aI76
aI57
aI124
aI36
aI8
aI-1
aI-1
aI-1
aI118
aI109
aI-1
aI-1
aI256
aI72
aI139
aI68
aI36
aI16
aI-1
aI-1
aI-1
aI72
aI131
aI192
aI255
aI76
aI57
aI248
aI-1
aI115
aI149
aI-1
aI-1
aI256
aI72
aI139
aI5
aI62
aI107
aI33
aI0
aI-1
aI73
aI57
aI197
aI-1
aI15
aI147
aI193
aI-1
aI72
aI3
aI5
aI57
aI107
aI33
aI0
aI-1
aI73
aI57
aI197
aI-1
aI15
aI150
aI192
aI-1
aI32
aI200
aI-1
aI-1
aI15
aI182
aI248
aI-1
aI76
aI137
aI246
aI-1
aI255
aI21
aI13
aI107
aI33
aI0
aI-1
aI-1
aa(lp9
I85
aI-1
aI-1
aI-1
aI65
aI87
aI-1
aI-1
aI65
aI86
aI-1
aI-1
aI65
aI85
aI-1
aI-1
aI65
aI84
aI-1
aI-1
aI83
aI-1
aI-1
aI-1
aI72
aI131
aI236
aI40
aI73
aI137
aI214
aI-1
aI76
aI139
aI126
aI16
aI72
aI139
aI5
aI148
aI107
aI33
aI0
aI-1
aI72
aI133
aI192
aI-1
aI116
aI15
aI-1
aI-1
aI256
aI72
aI131
aI61
aI128
aI107
aI33
aI0
aI0
aI116
aI113
aI-1
aI-1
aI256
aI72
aI139
aI29
aI127
aI107
aI33
aI0
aI-1
aI72
aI133
aI219
aI-1
aI116
aI101
aI-1
aI-1
aI256
aI77
aI139
aI174
aI160
aI0
aI0
aI0
aI-1
aI232
aI126
aI220
aI255
aI255
aI-1
aI-1
aI-1
aI73
aI137
aI196
aI-1
aI139
aI40
aI-1
aI-1
aI72
aI141
aI116
aI36
aI8
aI-1
aI-1
aI-1
aI72
aI137
aI223
aI-1
aI232
aI140
aI0
aI0
aI0
aI-1
aI-1
aI-1
aI65
aI137
aI44
aI36
aI133
aI192
aI-1
aI-1
aI120
aI63
aI-1
aI-1
aI256
aI76
aI57
aI124
aI36
aI8
aI-1
aI-1
aI-1
aI118
aI109
aI-1
aI-1
aI256
aI72
aI141
aI116
aI36
aI8
aI-1
aI-1
aI-1
aI76
aI137
aI255
aI-1
aI255
aI84
aI36
aI24
aI133
aI192
aI-1
aI-1
aI116
aI40
aI-1
aI-1
aI256
aI72
aI139
aI5
aI62
aI107
aI33
aI0
aI-1
aI73
aI57
aI197
aI-1
aI15
aI147
aI193
aI-1
aI72
aI3
aI5
aI57
aI107
aI33
aI0
aI-1
aI73
aI57
aI197
aI-1
aI15
aI150
aI192
aI-1
aI32
aI200
aI-1
aI-1
aI15
aI182
aI248
aI-1
aI76
aI137
aI246
aI-1
aI255
aI21
aI13
aI107
aI33
aI0
aI-1
aI-1
aa(lp10
I85
aI-1
aI-1
aI-1
aI65
aI87
aI-1
aI-1
aI65
aI86
aI-1
aI-1
aI65
aI85
aI-1
aI-1
aI65
aI84
aI-1
aI-1
aI83
aI-1
aI-1
aI-1
aI72
aI131
aI236
aI40
aI73
aI137
aI214
aI-1
aI76
aI139
aI126
aI16
aI72
aI139
aI5
aI148
aI107
aI33
aI0
aI-1
aI72
aI133
aI192
aI-1
aI116
aI15
aI-1
aI-1
aI256
aI76
aI137
aI255
aI-1
aI49
aI246
aI-1
aI-1
aI255
aI208
aI-1
aI-1
aI133
aI192
aI-1
aI-1
aI15
aI133
aI161
aI0
aI0
aI0
aI-1
aI-1
aI256
aI72
aI131
aI61
aI128
aI107
aI33
aI0
aI0
aI116
aI113
aI-1
aI-1
aI256
aI72
aI139
aI29
aI127
aI107
aI33
aI0
aI-1
aI72
aI133
aI219
aI-1
aI116
aI101
aI-1
aI-1
aI256
aI77
aI139
aI174
aI160
aI0
aI0
aI0
aI-1
aI232
aI126
aI220
aI255
aI255
aI-1
aI-1
aI-1
aI73
aI137
aI196
aI-1
aI139
aI40
aI-1
aI-1
aI72
aI141
aI116
aI36
aI8
aI-1
aI-1
aI-1
aI72
aI137
aI223
aI-1
aI232
aI140
aI0
aI0
aI0
aI-1
aI-1
aI-1
aI65
aI137
aI44
aI36
aI133
aI192
aI-1
aI-1
aI120
aI63
aI-1
aI-1
aI256
aI76
aI57
aI124
aI36
aI8
aI-1
aI-1
aI-1
aI118
aI109
aI-1
aI-1
aI256
aI72
aI139
aI68
aI36
aI16
aI-1
aI-1
aI-1
aI72
aI131
aI192
aI255
aI76
aI57
aI248
aI-1
aI115
aI149
aI-1
aI-1
aI256
aI72
aI139
aI5
aI62
aI107
aI33
aI0
aI-1
aI73
aI57
aI197
aI-1
aI15
aI147
aI193
aI-1
aI72
aI3
aI5
aI57
aI107
aI33
aI0
aI-1
aI73
aI57
aI197
aI-1
aI15
aI150
aI192
aI-1
aI32
aI200
aI-1
aI-1
aI15
aI182
aI248
aI-1
aI76
aI137
aI246
aI-1
aI255
aI21
aI13
aI107
aI33
aI0
aI-1
aI-1
aasS'0x40396b'
p11
(lp12
(lp13
I85
aI-1
aI-1
aI-1
aI65
aI87
aI-1
aI-1
aI65
aI86
aI-1
aI-1
aI65
aI85
aI-1
aI-1
aI65
aI84
aI-1
aI-1
aI83
aI-1
aI-1
aI-1
aI72
aI131
aI236
aI40
aI73
aI137
aI214
aI-1
aI76
aI139
aI126
aI16
aI72
aI139
aI5
aI148
aI107
aI33
aI0
aI-1
aI72
aI133
aI192
aI-1
aI116
aI15
aI-1
aI-1
aI256
aI72
aI131
aI61
aI128
aI107
aI33
aI0
aI0
aI116
aI113
aI-1
aI-1
aI256
aI72
aI139
aI29
aI127
aI107
aI33
aI0
aI-1
aI72
aI133
aI219
aI-1
aI116
aI101
aI-1
aI-1
aI256
aI77
aI139
aI174
aI160
aI0
aI0
aI0
aI-1
aI232
aI126
aI220
aI255
aI255
aI-1
aI-1
aI-1
aI73
aI137
aI196
aI-1
aI139
aI40
aI-1
aI-1
aI72
aI141
aI116
aI36
aI8
aI-1
aI-1
aI-1
aI72
aI137
aI223
aI-1
aI232
aI140
aI0
aI0
aI0
aI-1
aI-1
aI-1
aI65
aI137
aI44
aI36
aI133
aI192
aI-1
aI-1
aI120
aI63
aI-1
aI-1
aI256
aI76
aI57
aI124
aI36
aI8
aI-1
aI-1
aI-1
aI118
aI109
aI-1
aI-1
aI256
aI72
aI141
aI116
aI36
aI8
aI-1
aI-1
aI-1
aI76
aI137
aI255
aI-1
aI255
aI84
aI36
aI24
aa(lp14
I85
aI-1
aI-1
aI-1
aI65
aI87
aI-1
aI-1
aI65
aI86
aI-1
aI-1
aI65
aI85
aI-1
aI-1
aI65
aI84
aI-1
aI-1
aI83
aI-1
aI-1
aI-1
aI72
aI131
aI236
aI40
aI73
aI137
aI214
aI-1
aI76
aI139
aI126
aI16
aI72
aI139
aI5
aI148
aI107
aI33
aI0
aI-1
aI72
aI133
aI192
aI-1
aI116
aI15
aI-1
aI-1
aI256
aI76
aI137
aI255
aI-1
aI49
aI246
aI-1
aI-1
aI255
aI208
aI-1
aI-1
aI133
aI192
aI-1
aI-1
aI15
aI133
aI161
aI0
aI0
aI0
aI-1
aI-1
aI256
aI72
aI131
aI61
aI128
aI107
aI33
aI0
aI0
aI116
aI113
aI-1
aI-1
aI256
aI72
aI139
aI29
aI127
aI107
aI33
aI0
aI-1
aI72
aI133
aI219
aI-1
aI116
aI101
aI-1
aI-1
aI256
aI77
aI139
aI174
aI160
aI0
aI0
aI0
aI-1
aI232
aI126
aI220
aI255
aI255
aI-1
aI-1
aI-1
aI73
aI137
aI196
aI-1
aI139
aI40
aI-1
aI-1
aI72
aI141
aI116
aI36
aI8
aI-1
aI-1
aI-1
aI72
aI137
aI223
aI-1
aI232
aI140
aI0
aI0
aI0
aI-1
aI-1
aI-1
aI65
aI137
aI44
aI36
aI133
aI192
aI-1
aI-1
aI120
aI63
aI-1
aI-1
aI256
aI76
aI57
aI124
aI36
aI8
aI-1
aI-1
aI-1
aI118
aI109
aI-1
aI-1
aI256
aI72
aI141
aI116
aI36
aI8
aI-1
aI-1
aI-1
aI76
aI137
aI255
aI-1
aI255
aI84
aI36
aI24
aasS'0x4039af'
p15
(lp16
(lp17
I85
aI-1
aI-1
aI-1
aI65
aI87
aI-1
aI-1
aI65
aI86
aI-1
aI-1
aI65
aI85
aI-1
aI-1
aI65
aI84
aI-1
aI-1
aI83
aI-1
aI-1
aI-1
aI72
aI131
aI236
aI40
aI73
aI137
aI214
aI-1
aI76
aI139
aI126
aI16
aI72
aI139
aI5
aI148
aI107
aI33
aI0
aI-1
aI72
aI133
aI192
aI-1
aI116
aI15
aI-1
aI-1
aI256
aI72
aI131
aI61
aI128
aI107
aI33
aI0
aI0
aI116
aI113
aI-1
aI-1
aI256
aI72
aI139
aI5
aI254
aI106
aI33
aI0
aI-1
aI72
aI133
aI192
aI-1
aI116
aI14
aI-1
aI-1
aI256
aI76
aI137
aI255
aI-1
aI190
aI1
aI0
aI0
aI0
aI-1
aI-1
aI-1
aI255
aI208
aI-1
aI-1
aa(lp18
I85
aI-1
aI-1
aI-1
aI65
aI87
aI-1
aI-1
aI65
aI86
aI-1
aI-1
aI65
aI85
aI-1
aI-1
aI65
aI84
aI-1
aI-1
aI83
aI-1
aI-1
aI-1
aI72
aI131
aI236
aI40
aI73
aI137
aI214
aI-1
aI76
aI139
aI126
aI16
aI72
aI139
aI5
aI148
aI107
aI33
aI0
aI-1
aI72
aI133
aI192
aI-1
aI116
aI15
aI-1
aI-1
aI256
aI76
aI137
aI255
aI-1
aI49
aI246
aI-1
aI-1
aI255
aI208
aI-1
aI-1
aI133
aI192
aI-1
aI-1
aI15
aI133
aI161
aI0
aI0
aI0
aI-1
aI-1
aI256
aI72
aI131
aI61
aI128
aI107
aI33
aI0
aI0
aI116
aI113
aI-1
aI-1
aI256
aI72
aI139
aI5
aI254
aI106
aI33
aI0
aI-1
aI72
aI133
aI192
aI-1
aI116
aI14
aI-1
aI-1
aI256
aI76
aI137
aI255
aI-1
aI190
aI1
aI0
aI0
aI0
aI-1
aI-1
aI-1
aI255
aI208
aI-1
aI-1
aa(lp19
I85
aI-1
aI-1
aI-1
aI65
aI87
aI-1
aI-1
aI65
aI86
aI-1
aI-1
aI65
aI85
aI-1
aI-1
aI65
aI84
aI-1
aI-1
aI83
aI-1
aI-1
aI-1
aI72
aI131
aI236
aI40
aI73
aI137
aI214
aI-1
aI76
aI139
aI126
aI16
aI72
aI139
aI5
aI148
aI107
aI33
aI0
aI-1
aI72
aI133
aI192
aI-1
aI116
aI15
aI-1
aI-1
aI256
aI72
aI131
aI61
aI128
aI107
aI33
aI0
aI0
aI116
aI113
aI-1
aI-1
aI256
aI72
aI139
aI29
aI127
aI107
aI33
aI0
aI-1
aI72
aI133
aI219
aI-1
aI116
aI101
aI-1
aI-1
aI256
aI72
aI139
aI5
aI254
aI106
aI33
aI0
aI-1
aI72
aI133
aI192
aI-1
aI116
aI14
aI-1
aI-1
aI256
aI76
aI137
aI255
aI-1
aI190
aI1
aI0
aI0
aI0
aI-1
aI-1
aI-1
aI255
aI208
aI-1
aI-1
aass.