(dp0
S'sigsegv_handler'
p1
(dp2
S'0x403916'
p3
(lp4
(lp5
I133
aI192
aI-1
aI-1
aI15
aI133
aI161
aI0
aI0
aI0
aI-1
aI-1
aI256
aI72
aI131
aI61
aI128
aI107
aI33
aI0
aI0
aI116
aI113
aI-1
aI-1
aa(lp6
I133
aI192
aI-1
aI-1
aI15
aI133
aI161
aI0
aI0
aI0
aI-1
aI-1
aI256
aI72
aI131
aI196
aI40
aI91
aI-1
aI-1
aI-1
aI65
aI92
aI-1
aI-1
aI65
aI93
aI-1
aI-1
aI65
aI94
aI-1
aI-1
aI65
aI95
aI-1
aI-1
aI93
aI-1
aI-1
aI-1
aI195
aI-1
aI-1
aI-1
aasS'0x403995'
p7
(lp8
(lp9
I258
aI-1
aI-1
aI-1
aI256
aI72
aI139
aI5
aI254
aI106
aI33
aI0
aI-1
aI72
aI133
aI192
aI-1
aI116
aI14
aI-1
aI-1
aasS'0x40396b'
p10
(lp11
(lp12
I133
aI192
aI-1
aI-1
aI116
aI40
aI-1
aI-1
aI256
aI72
aI139
aI5
aI62
aI107
aI33
aI0
aI-1
aI73
aI57
aI197
aI-1
aI15
aI147
aI193
aI-1
aI72
aI3
aI5
aI57
aI107
aI33
aI0
aI-1
aI73
aI57
aI197
aI-1
aI15
aI150
aI192
aI-1
aI32
aI200
aI-1
aI-1
aI15
aI182
aI248
aI-1
aI76
aI137
aI246
aI-1
aI255
aI21
aI13
aI107
aI33
aI0
aI-1
aI-1
aa(lp13
I133
aI192
aI-1
aI-1
aI116
aI40
aI-1
aI-1
aI256
aI72
aI139
aI5
aI254
aI106
aI33
aI0
aI-1
aI72
aI133
aI192
aI-1
aI116
aI14
aI-1
aI-1
aasS'0x4039af'
p14
(lp15
(lp16
I133
aI192
aI-1
aI-1
aI117
aI12
aI-1
aI-1
aI256
aI191
aI11
aI0
aI0
aI0
aI-1
aI-1
aI-1
aI49
aI246
aI-1
aI-1
aI232
aI31
aI222
aI255
aI255
aI-1
aI-1
aI-1
aa(lp17
I133
aI192
aI-1
aI-1
aI117
aI12
aI-1
aI-1
aI256
aI72
aI131
aI196
aI40
aI91
aI-1
aI-1
aI-1
aI65
aI92
aI-1
aI-1
aI65
aI93
aI-1
aI-1
aI65
aI94
aI-1
aI-1
aI65
aI95
aI-1
aI-1
aI93
aI-1
aI-1
aI-1
aI195
aI-1
aI-1
aI-1
aass.